SF:/root/project/rust-rag-toolchain/rag-toolchain/src/chains/basic_rag_chain.rs
FN:253,_RNCNvNtNtNtCsfsPcvtvSBg5_13rag_toolchain6chains15basic_rag_chain21basic_rag_chain_testss_19test_chain_succeeds0B9_
FN:270,_RNCNCNvNtNtNtCsfsPcvtvSBg5_13rag_toolchain6chains15basic_rag_chain21basic_rag_chain_testss_19test_chain_succeeds00Bb_
FN:278,_RNCNCNvNtNtNtCsfsPcvtvSBg5_13rag_toolchain6chains15basic_rag_chain21basic_rag_chain_testss_19test_chain_succeeds0s_0Bb_
FN:298,_RNCNvNtNtNtCsfsPcvtvSBg5_13rag_toolchain6chains15basic_rag_chain21basic_rag_chain_testss_28test_streamed_chain_succeeds0B9_
FN:314,_RNCNCNvNtNtNtCsfsPcvtvSBg5_13rag_toolchain6chains15basic_rag_chain21basic_rag_chain_testss_28test_streamed_chain_succeeds00Bb_
FN:322,_RNCNCNvNtNtNtCsfsPcvtvSBg5_13rag_toolchain6chains15basic_rag_chain21basic_rag_chain_testss_28test_streamed_chain_succeeds0s_0Bb_
FN:326,_RNCNCNCNvNtNtNtCsfsPcvtvSBg5_13rag_toolchain6chains15basic_rag_chain21basic_rag_chain_testss_28test_streamed_chain_succeeds0s_00Bd_
FN:253,_RNvNtNtNtCsfsPcvtvSBg5_13rag_toolchain6chains15basic_rag_chain21basic_rag_chain_testss_19test_chain_succeeds
FN:298,_RNvNtNtNtCsfsPcvtvSBg5_13rag_toolchain6chains15basic_rag_chain21basic_rag_chain_testss_28test_streamed_chain_succeeds
FN:70,_RNCNvMsb_NtNtCsfsPcvtvSBg5_13rag_toolchain6chains15basic_rag_chainINtB7_20BasicRAGChainBuilderppTpTpETpEEE5build0Bb_
FN:197,_RNCNvMsr_NtNtCsfsPcvtvSBg5_13rag_toolchain6chains15basic_rag_chainINtB7_28BasicStreamedRAGChainBuilderppTpTpETpEEE5build0Bb_
FN:107,_RNvMNtNtCsfsPcvtvSBg5_13rag_toolchain6chains15basic_rag_chainINtB2_13BasicRAGChainNtNtNtB6_7clients6traits19MockAsyncChatClientNtNtNtB6_10retrievers6traits18MockAsyncRetrieverE12invoke_chainB6_
FN:111,_RNCNvMNtNtCsfsPcvtvSBg5_13rag_toolchain6chains15basic_rag_chainINtB4_13BasicRAGChainNtNtNtB8_7clients6traits19MockAsyncChatClientNtNtNtB8_10retrievers6traits18MockAsyncRetrieverE12invoke_chain0B8_
FN:208,_RNvMs_NtNtCsfsPcvtvSBg5_13rag_toolchain6chains15basic_rag_chainINtB4_21BasicStreamedRAGChainNtNtNtB8_7clients6traits27MockAsyncStreamedChatClientNtNtNtB8_10retrievers6traits18MockAsyncRetrieverE12invoke_chainB8_
FN:212,_RNCNvMs_NtNtCsfsPcvtvSBg5_13rag_toolchain6chains15basic_rag_chainINtB6_21BasicStreamedRAGChainNtNtNtBa_7clients6traits27MockAsyncStreamedChatClientNtNtNtBa_10retrievers6traits18MockAsyncRetrieverE12invoke_chain0Ba_
FNDA:1,_RNCNvNtNtNtCsfsPcvtvSBg5_13rag_toolchain6chains15basic_rag_chain21basic_rag_chain_testss_19test_chain_succeeds0B9_
FNDA:1,_RNCNCNvNtNtNtCsfsPcvtvSBg5_13rag_toolchain6chains15basic_rag_chain21basic_rag_chain_testss_19test_chain_succeeds00Bb_
FNDA:1,_RNCNCNvNtNtNtCsfsPcvtvSBg5_13rag_toolchain6chains15basic_rag_chain21basic_rag_chain_testss_19test_chain_succeeds0s_0Bb_
FNDA:1,_RNCNvNtNtNtCsfsPcvtvSBg5_13rag_toolchain6chains15basic_rag_chain21basic_rag_chain_testss_28test_streamed_chain_succeeds0B9_
FNDA:1,_RNCNCNvNtNtNtCsfsPcvtvSBg5_13rag_toolchain6chains15basic_rag_chain21basic_rag_chain_testss_28test_streamed_chain_succeeds00Bb_
FNDA:1,_RNCNCNvNtNtNtCsfsPcvtvSBg5_13rag_toolchain6chains15basic_rag_chain21basic_rag_chain_testss_28test_streamed_chain_succeeds0s_0Bb_
FNDA:1,_RNCNCNCNvNtNtNtCsfsPcvtvSBg5_13rag_toolchain6chains15basic_rag_chain21basic_rag_chain_testss_28test_streamed_chain_succeeds0s_00Bd_
FNDA:1,_RNvNtNtNtCsfsPcvtvSBg5_13rag_toolchain6chains15basic_rag_chain21basic_rag_chain_testss_19test_chain_succeeds
FNDA:1,_RNvNtNtNtCsfsPcvtvSBg5_13rag_toolchain6chains15basic_rag_chain21basic_rag_chain_testss_28test_streamed_chain_succeeds
FNDA:0,_RNCNvMsb_NtNtCsfsPcvtvSBg5_13rag_toolchain6chains15basic_rag_chainINtB7_20BasicRAGChainBuilderppTpTpETpEEE5build0Bb_
FNDA:0,_RNCNvMsr_NtNtCsfsPcvtvSBg5_13rag_toolchain6chains15basic_rag_chainINtB7_28BasicStreamedRAGChainBuilderppTpTpETpEEE5build0Bb_
FNDA:1,_RNvMNtNtCsfsPcvtvSBg5_13rag_toolchain6chains15basic_rag_chainINtB2_13BasicRAGChainNtNtNtB6_7clients6traits19MockAsyncChatClientNtNtNtB6_10retrievers6traits18MockAsyncRetrieverE12invoke_chainB6_
FNDA:1,_RNCNvMNtNtCsfsPcvtvSBg5_13rag_toolchain6chains15basic_rag_chainINtB4_13BasicRAGChainNtNtNtB8_7clients6traits19MockAsyncChatClientNtNtNtB8_10retrievers6traits18MockAsyncRetrieverE12invoke_chain0B8_
FNDA:1,_RNvMs_NtNtCsfsPcvtvSBg5_13rag_toolchain6chains15basic_rag_chainINtB4_21BasicStreamedRAGChainNtNtNtB8_7clients6traits27MockAsyncStreamedChatClientNtNtNtB8_10retrievers6traits18MockAsyncRetrieverE12invoke_chainB8_
FNDA:1,_RNCNvMs_NtNtCsfsPcvtvSBg5_13rag_toolchain6chains15basic_rag_chainINtB6_21BasicStreamedRAGChainNtNtNtBa_7clients6traits27MockAsyncStreamedChatClientNtNtNtBa_10retrievers6traits18MockAsyncRetrieverE12invoke_chain0Ba_
FNF:15
FNH:13
DA:70,0
DA:107,1
DA:108,1
DA:109,1
DA:110,1
DA:111,1
DA:112,1
DA:113,1
DA:114,1
DA:115,1
DA:116,0
DA:117,1
DA:119,1
DA:120,1
DA:122,1
DA:123,0
DA:124,1
DA:127,1
DA:128,1
DA:129,1
DA:130,0
DA:131,1
DA:133,1
DA:134,1
DA:197,0
DA:208,1
DA:209,1
DA:210,1
DA:211,1
DA:212,1
DA:213,1
DA:214,1
DA:215,1
DA:216,1
DA:217,0
DA:218,1
DA:220,1
DA:221,1
DA:223,1
DA:224,0
DA:225,1
DA:228,1
DA:229,1
DA:230,1
DA:231,0
DA:232,1
DA:234,1
DA:235,1
DA:253,1
DA:254,1
DA:255,1
DA:256,1
DA:257,1
DA:258,1
DA:259,1
DA:260,1
DA:261,1
DA:262,1
DA:263,1
DA:264,1
DA:265,1
DA:266,1
DA:267,1
DA:268,1
DA:269,1
DA:270,1
DA:271,1
DA:272,1
DA:273,1
DA:274,1
DA:275,1
DA:276,1
DA:277,1
DA:278,1
DA:279,1
DA:280,1
DA:281,1
DA:282,1
DA:283,1
DA:284,1
DA:285,1
DA:286,1
DA:287,1
DA:288,1
DA:289,1
DA:290,1
DA:291,1
DA:292,1
DA:293,1
DA:294,1
DA:295,1
DA:298,1
DA:299,1
DA:300,1
DA:301,1
DA:302,1
DA:303,1
DA:304,1
DA:305,1
DA:306,1
DA:307,1
DA:308,1
DA:309,1
DA:310,1
DA:311,1
DA:312,1
DA:313,1
DA:314,1
DA:315,1
DA:316,1
DA:317,1
DA:318,1
DA:319,1
DA:320,1
DA:321,1
DA:322,1
DA:323,1
DA:324,1
DA:325,1
DA:326,1
DA:327,1
DA:328,1
DA:329,1
DA:330,1
DA:331,1
DA:332,1
DA:333,1
DA:334,1
DA:335,1
DA:336,1
DA:337,1
DA:338,1
DA:339,1
DA:340,1
DA:341,1
DA:342,1
DA:343,1
DA:344,1
DA:345,1
DA:346,1
DA:347,1
DA:348,1
BRF:0
BRH:0
LF:238
LH:228
end_of_record
SF:/root/project/rust-rag-toolchain/rag-toolchain/src/chains/chat_history_chain.rs
FN:149,_RNCNvNtNtNtCsfsPcvtvSBg5_13rag_toolchain6chains18chat_history_chain24chat_history_chain_testss_23test_chat_history_chain0B9_
FN:155,_RNCNCNvNtNtNtCsfsPcvtvSBg5_13rag_toolchain6chains18chat_history_chain24chat_history_chain_testss_23test_chat_history_chain00Bb_
FN:166,_RNCNCNvNtNtNtCsfsPcvtvSBg5_13rag_toolchain6chains18chat_history_chain24chat_history_chain_testss_23test_chat_history_chain0s_0Bb_
FN:149,_RNvNtNtNtCsfsPcvtvSBg5_13rag_toolchain6chains18chat_history_chain24chat_history_chain_testss_23test_chat_history_chain
FN:57,_RNvMNtNtCsfsPcvtvSBg5_13rag_toolchain6chains18chat_history_chainINtB2_16ChatHistoryChainNtNtNtB6_7clients6traits19MockAsyncChatClientE3newB6_
FN:78,_RNvMNtNtCsfsPcvtvSBg5_13rag_toolchain6chains18chat_history_chainINtB2_16ChatHistoryChainNtNtNtB6_7clients6traits19MockAsyncChatClientE12invoke_chainB6_
FN:81,_RNCNvMNtNtCsfsPcvtvSBg5_13rag_toolchain6chains18chat_history_chainINtB4_16ChatHistoryChainNtNtNtB8_7clients6traits19MockAsyncChatClientE12invoke_chain0B8_
FN:107,_RNvMs_NtNtCsfsPcvtvSBg5_13rag_toolchain6chains18chat_history_chainNtB4_17ChatHistoryBuffer3new
FN:115,_RNvMs_NtNtCsfsPcvtvSBg5_13rag_toolchain6chains18chat_history_chainNtB4_17ChatHistoryBuffer12get_messages
FN:123,_RNvMs_NtNtCsfsPcvtvSBg5_13rag_toolchain6chains18chat_history_chainNtB4_17ChatHistoryBuffer6append
FNDA:1,_RNCNvNtNtNtCsfsPcvtvSBg5_13rag_toolchain6chains18chat_history_chain24chat_history_chain_testss_23test_chat_history_chain0B9_
FNDA:1,_RNCNCNvNtNtNtCsfsPcvtvSBg5_13rag_toolchain6chains18chat_history_chain24chat_history_chain_testss_23test_chat_history_chain00Bb_
FNDA:1,_RNCNCNvNtNtNtCsfsPcvtvSBg5_13rag_toolchain6chains18chat_history_chain24chat_history_chain_testss_23test_chat_history_chain0s_0Bb_
FNDA:1,_RNvNtNtNtCsfsPcvtvSBg5_13rag_toolchain6chains18chat_history_chain24chat_history_chain_testss_23test_chat_history_chain
FNDA:1,_RNvMNtNtCsfsPcvtvSBg5_13rag_toolchain6chains18chat_history_chainINtB2_16ChatHistoryChainNtNtNtB6_7clients6traits19MockAsyncChatClientE3newB6_
FNDA:2,_RNvMNtNtCsfsPcvtvSBg5_13rag_toolchain6chains18chat_history_chainINtB2_16ChatHistoryChainNtNtNtB6_7clients6traits19MockAsyncChatClientE12invoke_chainB6_
FNDA:2,_RNCNvMNtNtCsfsPcvtvSBg5_13rag_toolchain6chains18chat_history_chainINtB4_16ChatHistoryChainNtNtNtB8_7clients6traits19MockAsyncChatClientE12invoke_chain0B8_
FNDA:1,_RNvMs_NtNtCsfsPcvtvSBg5_13rag_toolchain6chains18chat_history_chainNtB4_17ChatHistoryBuffer3new
FNDA:2,_RNvMs_NtNtCsfsPcvtvSBg5_13rag_toolchain6chains18chat_history_chainNtB4_17ChatHistoryBuffer12get_messages
FNDA:4,_RNvMs_NtNtCsfsPcvtvSBg5_13rag_toolchain6chains18chat_history_chainNtB4_17ChatHistoryBuffer6append
FNF:10
FNH:10
DA:57,1
DA:58,1
DA:59,1
DA:60,1
DA:61,1
DA:62,1
DA:63,1
DA:78,2
DA:79,2
DA:80,2
DA:81,2
DA:82,2
DA:83,2
DA:84,2
DA:85,2
DA:86,2
DA:87,2
DA:88,2
DA:89,2
DA:90,0
DA:91,2
DA:92,2
DA:93,2
DA:94,2
DA:95,2
DA:107,1
DA:108,1
DA:109,1
DA:110,1
DA:111,1
DA:115,2
DA:116,2
DA:117,2
DA:118,2
DA:123,4
DA:124,4
DA:125,4
DA:126,4
DA:127,4
DA:149,1
DA:150,1
DA:151,1
DA:152,1
DA:153,1
DA:154,1
DA:155,1
DA:156,1
DA:157,1
DA:158,1
DA:159,1
DA:160,1
DA:161,1
DA:162,1
DA:163,1
DA:164,1
DA:165,1
DA:166,1
DA:167,1
DA:168,1
DA:169,1
DA:170,1
DA:171,1
DA:172,1
DA:173,1
DA:174,1
DA:175,1
DA:176,1
DA:177,1
DA:178,1
DA:179,1
DA:180,1
BRF:0
BRH:0
LF:104
LH:101
end_of_record
SF:/root/project/rust-rag-toolchain/rag-toolchain/src/chains/types.rs
FN:35,_RNvXININtNtCsfsPcvtvSBg5_13rag_toolchain6chains5typess_0ppEINtB5_13RagChainErrorppENtNtCsaYZPK01V26L_4core3fmt7Display3fmtB9_
FN:61,_RNvXININtNtCsfsPcvtvSBg5_13rag_toolchain6chains5typess1_0pEINtB5_10ChainErrorpENtNtCsaYZPK01V26L_4core3fmt7Display3fmtB9_
FNDA:0,_RNvXININtNtCsfsPcvtvSBg5_13rag_toolchain6chains5typess_0ppEINtB5_13RagChainErrorppENtNtCsaYZPK01V26L_4core3fmt7Display3fmtB9_
FNDA:0,_RNvXININtNtCsfsPcvtvSBg5_13rag_toolchain6chains5typess1_0pEINtB5_10ChainErrorpENtNtCsaYZPK01V26L_4core3fmt7Display3fmtB9_
FNF:2
FNH:0
DA:35,0
DA:36,0
DA:37,0
DA:38,0
DA:40,0
DA:61,0
DA:62,0
DA:63,0
DA:64,0
DA:65,0
BRF:0
BRH:0
LF:10
LH:0
end_of_record
SF:/root/project/rust-rag-toolchain/rag-toolchain/src/chains/utils.rs
FN:36,_RNvNtNtNtCsfsPcvtvSBg5_13rag_toolchain6chains5utils18chains_utils_testss_33build_prompt_gives_correct_output
FN:19,_RNvNtNtCsfsPcvtvSBg5_13rag_toolchain6chains5utils12build_prompt
FNDA:1,_RNvNtNtNtCsfsPcvtvSBg5_13rag_toolchain6chains5utils18chains_utils_testss_33build_prompt_gives_correct_output
FNDA:3,_RNvNtNtCsfsPcvtvSBg5_13rag_toolchain6chains5utils12build_prompt
FNF:2
FNH:2
DA:19,3
DA:20,3
DA:21,3
DA:22,3
DA:23,9
DA:24,6
DA:26,3
DA:27,3
DA:36,1
DA:37,1
DA:38,1
DA:39,1
DA:40,1
DA:41,1
DA:42,1
DA:43,1
DA:44,1
BRF:0
BRH:0
LF:17
LH:17
end_of_record
SF:/root/project/rust-rag-toolchain/rag-toolchain/src/chunkers/token_chunker.rs
FN:163,_RNCNvNtNtNtCsfsPcvtvSBg5_13rag_toolchain8chunkers13token_chunker5testss_37test_generate_chunks_with_valid_input0B9_
FN:182,_RNCNvNtNtNtCsfsPcvtvSBg5_13rag_toolchain8chunkers13token_chunker5testss_38test_generate_chunks_with_empty_string0B9_
FN:154,_RNvNtNtNtCsfsPcvtvSBg5_13rag_toolchain8chunkers13token_chunker5testss_37test_generate_chunks_with_valid_input
FN:173,_RNvNtNtNtCsfsPcvtvSBg5_13rag_toolchain8chunkers13token_chunker5testss_38test_generate_chunks_with_empty_string
FN:189,_RNvNtNtNtCsfsPcvtvSBg5_13rag_toolchain8chunkers13token_chunker5testss_43test_generate_chunks_with_invalid_arguments
FN:86,_RNvMNtNtCsfsPcvtvSBg5_13rag_toolchain8chunkers13token_chunkerNtB2_12TokenChunker18validate_arguments
FN:117,_RNvMNtNtCsfsPcvtvSBg5_13rag_toolchain8chunkers13token_chunkerNtB2_12TokenChunker15generate_chunks
FN:57,_RINvMNtNtCsfsPcvtvSBg5_13rag_toolchain8chunkers13token_chunkerNtB3_12TokenChunker7try_newNtNtNtB7_6common16embedding_shared20OpenAIEmbeddingModelEB7_
FN:119,_RNCNvMNtNtCsfsPcvtvSBg5_13rag_toolchain8chunkers13token_chunkerNtB4_12TokenChunker15generate_chunks0B8_
FNDA:5,_RNCNvNtNtNtCsfsPcvtvSBg5_13rag_toolchain8chunkers13token_chunker5testss_37test_generate_chunks_with_valid_input0B9_
FNDA:0,_RNCNvNtNtNtCsfsPcvtvSBg5_13rag_toolchain8chunkers13token_chunker5testss_38test_generate_chunks_with_empty_string0B9_
FNDA:1,_RNvNtNtNtCsfsPcvtvSBg5_13rag_toolchain8chunkers13token_chunker5testss_37test_generate_chunks_with_valid_input
FNDA:1,_RNvNtNtNtCsfsPcvtvSBg5_13rag_toolchain8chunkers13token_chunker5testss_38test_generate_chunks_with_empty_string
FNDA:1,_RNvNtNtNtCsfsPcvtvSBg5_13rag_toolchain8chunkers13token_chunker5testss_43test_generate_chunks_with_invalid_arguments
FNDA:3,_RNvMNtNtCsfsPcvtvSBg5_13rag_toolchain8chunkers13token_chunkerNtB2_12TokenChunker18validate_arguments
FNDA:2,_RNvMNtNtCsfsPcvtvSBg5_13rag_toolchain8chunkers13token_chunkerNtB2_12TokenChunker15generate_chunks
FNDA:3,_RINvMNtNtCsfsPcvtvSBg5_13rag_toolchain8chunkers13token_chunkerNtB3_12TokenChunker7try_newNtNtNtB7_6common16embedding_shared20OpenAIEmbeddingModelEB7_
FNDA:0,_RNCNvMNtNtCsfsPcvtvSBg5_13rag_toolchain8chunkers13token_chunkerNtB4_12TokenChunker15generate_chunks0B8_
FNF:9
FNH:7
DA:57,3
DA:58,3
DA:59,3
DA:60,3
DA:61,3
DA:62,3
DA:63,3
DA:64,2
DA:65,2
DA:66,2
DA:67,2
DA:68,2
DA:69,2
DA:70,3
DA:86,3
DA:87,3
DA:88,3
DA:89,3
DA:90,3
DA:91,3
DA:92,0
DA:93,0
DA:94,0
DA:95,0
DA:96,3
DA:98,3
DA:99,1
DA:100,1
DA:101,1
DA:102,2
DA:103,2
DA:104,3
DA:117,2
DA:119,2
DA:120,0
DA:121,2
DA:123,2
DA:124,2
DA:125,2
DA:126,2
DA:127,7
DA:128,5
DA:129,5
DA:130,5
DA:131,5
DA:132,5
DA:134,2
DA:135,2
DA:154,1
DA:155,1
DA:156,1
DA:157,1
DA:158,1
DA:159,1
DA:160,1
DA:161,1
DA:162,1
DA:163,5
DA:164,1
DA:165,1
DA:166,1
DA:167,1
DA:168,1
DA:169,1
DA:170,1
DA:173,1
DA:174,1
DA:175,1
DA:176,1
DA:177,1
DA:178,1
DA:179,1
DA:180,1
DA:181,1
DA:182,1
DA:183,1
DA:184,1
DA:185,1
DA:186,1
DA:189,1
DA:190,1
DA:191,1
DA:192,1
DA:193,1
DA:194,0
DA:195,1
DA:196,1
DA:197,1
DA:198,1
DA:199,1
DA:200,1
DA:201,1
DA:202,1
DA:203,1
DA:204,1
BRF:0
BRH:0
LF:99
LH:90
end_of_record
SF:/root/project/rust-rag-toolchain/rag-toolchain/src/clients/open_ai/model/chat_completions.rs
FN:19,_RINvXNvXNvNtNtNtNtCsfsPcvtvSBg5_13rag_toolchain7clients7open_ai5model16chat_completionss1_1__NtB8_22ChatCompletionResponseNtNtCseHmADR0RVY9_5serde2de11Deserialize11deserializeNtB3_14___FieldVisitorNtB1Y_7Visitor9visit_strNtNtCse05LGF5xr5W_10serde_json5error5ErrorEBg_
FN:19,_RINvXs_NvXNvNtNtNtNtCsfsPcvtvSBg5_13rag_toolchain7clients7open_ai5model16chat_completionss1_1__NtBa_22ChatCompletionResponseNtNtCseHmADR0RVY9_5serde2de11Deserialize11deserializeNtB5_7___FieldB1Y_11deserializeINtNtCse05LGF5xr5W_10serde_json2de6MapKeyNtNtB3p_4read7StrReadEEBi_
FN:19,_RINvXs0_NvXNvNtNtNtNtCsfsPcvtvSBg5_13rag_toolchain7clients7open_ai5model16chat_completionss1_1__NtBb_22ChatCompletionResponseNtNtCseHmADR0RVY9_5serde2de11Deserialize11deserializeNtB6_9___VisitorNtB21_7Visitor9visit_seqINtNtCse05LGF5xr5W_10serde_json2de9SeqAccessNtNtB3z_4read7StrReadEEBj_
FN:19,_RINvXs0_NvXNvNtNtNtNtCsfsPcvtvSBg5_13rag_toolchain7clients7open_ai5model16chat_completionss1_1__NtBb_22ChatCompletionResponseNtNtCseHmADR0RVY9_5serde2de11Deserialize11deserializeNtB6_9___VisitorNtB21_7Visitor9visit_mapINtNtCse05LGF5xr5W_10serde_json2de9MapAccessNtNtB3z_4read7StrReadEEBj_
FN:31,_RINvXNvXNvNtNtNtNtCsfsPcvtvSBg5_13rag_toolchain7clients7open_ai5model16chat_completionss3_1__NtB8_15ChatMessageRoleNtNtCseHmADR0RVY9_5serde2de11Deserialize11deserializeNtB3_14___FieldVisitorNtB1R_7Visitor9visit_strNtNtCse05LGF5xr5W_10serde_json5error5ErrorEBg_
FN:31,_RINvXs_NvXNvNtNtNtNtCsfsPcvtvSBg5_13rag_toolchain7clients7open_ai5model16chat_completionss3_1__NtBa_15ChatMessageRoleNtNtCseHmADR0RVY9_5serde2de11Deserialize11deserializeNtB5_7___FieldB1R_11deserializeQINtNtCse05LGF5xr5W_10serde_json2de12DeserializerNtNtB3j_4read7StrReadEEBi_
FN:31,_RINvXs0_NvXNvNtNtNtNtCsfsPcvtvSBg5_13rag_toolchain7clients7open_ai5model16chat_completionss3_1__NtBb_15ChatMessageRoleNtNtCseHmADR0RVY9_5serde2de11Deserialize11deserializeNtB6_9___VisitorNtB1U_7Visitor10visit_enumINtNtCse05LGF5xr5W_10serde_json2de13VariantAccessNtNtB3u_4read7StrReadEEBj_
FN:31,_RINvXs0_NvXNvNtNtNtNtCsfsPcvtvSBg5_13rag_toolchain7clients7open_ai5model16chat_completionss3_1__NtBb_15ChatMessageRoleNtNtCseHmADR0RVY9_5serde2de11Deserialize11deserializeNtB6_9___VisitorNtB1U_7Visitor10visit_enumINtNtCse05LGF5xr5W_10serde_json2de17UnitVariantAccessNtNtB3u_4read7StrReadEEBj_
FN:48,_RINvXNvXNvNtNtNtNtCsfsPcvtvSBg5_13rag_toolchain7clients7open_ai5model16chat_completionss7_1__NtB8_11ChatMessageNtNtCseHmADR0RVY9_5serde2de11Deserialize11deserializeNtB3_14___FieldVisitorNtB1N_7Visitor9visit_strNtNtCse05LGF5xr5W_10serde_json5error5ErrorEBg_
FN:48,_RINvXs_NvXNvNtNtNtNtCsfsPcvtvSBg5_13rag_toolchain7clients7open_ai5model16chat_completionss7_1__NtBa_11ChatMessageNtNtCseHmADR0RVY9_5serde2de11Deserialize11deserializeNtB5_7___FieldB1N_11deserializeINtNtCse05LGF5xr5W_10serde_json2de6MapKeyNtNtB3e_4read7StrReadEEBi_
FN:48,_RINvXs0_NvXNvNtNtNtNtCsfsPcvtvSBg5_13rag_toolchain7clients7open_ai5model16chat_completionss7_1__NtBb_11ChatMessageNtNtCseHmADR0RVY9_5serde2de11Deserialize11deserializeNtB6_9___VisitorNtB1Q_7Visitor9visit_seqINtNtCse05LGF5xr5W_10serde_json2de9SeqAccessNtNtB3o_4read7StrReadEEBj_
FN:48,_RINvXs0_NvXNvNtNtNtNtCsfsPcvtvSBg5_13rag_toolchain7clients7open_ai5model16chat_completionss7_1__NtBb_11ChatMessageNtNtCseHmADR0RVY9_5serde2de11Deserialize11deserializeNtB6_9___VisitorNtB1Q_7Visitor9visit_mapINtNtCse05LGF5xr5W_10serde_json2de9MapAccessNtNtB3o_4read7StrReadEEBj_
FN:83,_RINvXNvXNvNtNtNtNtCsfsPcvtvSBg5_13rag_toolchain7clients7open_ai5model16chat_completionss9_1__NtB8_5UsageNtNtCseHmADR0RVY9_5serde2de11Deserialize11deserializeNtB3_14___FieldVisitorNtB1G_7Visitor9visit_strNtNtCse05LGF5xr5W_10serde_json5error5ErrorEBg_
FN:83,_RINvXs_NvXNvNtNtNtNtCsfsPcvtvSBg5_13rag_toolchain7clients7open_ai5model16chat_completionss9_1__NtBa_5UsageNtNtCseHmADR0RVY9_5serde2de11Deserialize11deserializeNtB5_7___FieldB1G_11deserializeINtNtCse05LGF5xr5W_10serde_json2de6MapKeyNtNtB37_4read7StrReadEEBi_
FN:83,_RINvXs0_NvXNvNtNtNtNtCsfsPcvtvSBg5_13rag_toolchain7clients7open_ai5model16chat_completionss9_1__NtBb_5UsageNtNtCseHmADR0RVY9_5serde2de11Deserialize11deserializeNtB6_9___VisitorNtB1J_7Visitor9visit_seqINtNtCse05LGF5xr5W_10serde_json2de9SeqAccessNtNtB3h_4read7StrReadEEBj_
FN:83,_RINvXs0_NvXNvNtNtNtNtCsfsPcvtvSBg5_13rag_toolchain7clients7open_ai5model16chat_completionss9_1__NtBb_5UsageNtNtCseHmADR0RVY9_5serde2de11Deserialize11deserializeNtB6_9___VisitorNtB1J_7Visitor9visit_mapINtNtCse05LGF5xr5W_10serde_json2de9MapAccessNtNtB3h_4read7StrReadEEBj_
FN:90,_RINvXNvXNvNtNtNtNtCsfsPcvtvSBg5_13rag_toolchain7clients7open_ai5model16chat_completionssb_1__NtB8_21ChatCompletionChoicesNtNtCseHmADR0RVY9_5serde2de11Deserialize11deserializeNtB3_14___FieldVisitorNtB1X_7Visitor9visit_strNtNtCse05LGF5xr5W_10serde_json5error5ErrorEBg_
FN:90,_RINvXs_NvXNvNtNtNtNtCsfsPcvtvSBg5_13rag_toolchain7clients7open_ai5model16chat_completionssb_1__NtBa_21ChatCompletionChoicesNtNtCseHmADR0RVY9_5serde2de11Deserialize11deserializeNtB5_7___FieldB1X_11deserializeINtNtCse05LGF5xr5W_10serde_json2de6MapKeyNtNtB3o_4read7StrReadEEBi_
FN:90,_RINvXs0_NvXNvNtNtNtNtCsfsPcvtvSBg5_13rag_toolchain7clients7open_ai5model16chat_completionssb_1__NtBb_21ChatCompletionChoicesNtNtCseHmADR0RVY9_5serde2de11Deserialize11deserializeNtB6_9___VisitorNtB20_7Visitor9visit_seqINtNtCse05LGF5xr5W_10serde_json2de9SeqAccessNtNtB3y_4read7StrReadEEBj_
FN:90,_RINvXs0_NvXNvNtNtNtNtCsfsPcvtvSBg5_13rag_toolchain7clients7open_ai5model16chat_completionssb_1__NtBb_21ChatCompletionChoicesNtNtCseHmADR0RVY9_5serde2de11Deserialize11deserializeNtB6_9___VisitorNtB20_7Visitor9visit_mapINtNtCse05LGF5xr5W_10serde_json2de9MapAccessNtNtB3y_4read7StrReadEEBj_
FN:99,_RINvXNvXNvNtNtNtNtCsfsPcvtvSBg5_13rag_toolchain7clients7open_ai5model16chat_completionssd_1__NtB8_30ChatCompletionStreamedResponseNtNtCseHmADR0RVY9_5serde2de11Deserialize11deserializeNtB3_14___FieldVisitorNtB26_7Visitor9visit_strNtNtCse05LGF5xr5W_10serde_json5error5ErrorEBg_
FN:99,_RINvXs_NvXNvNtNtNtNtCsfsPcvtvSBg5_13rag_toolchain7clients7open_ai5model16chat_completionssd_1__NtBa_30ChatCompletionStreamedResponseNtNtCseHmADR0RVY9_5serde2de11Deserialize11deserializeNtB5_7___FieldB26_11deserializeINtNtCse05LGF5xr5W_10serde_json2de6MapKeyNtNtB3x_4read7StrReadEEBi_
FN:99,_RINvXs0_NvXNvNtNtNtNtCsfsPcvtvSBg5_13rag_toolchain7clients7open_ai5model16chat_completionssd_1__NtBb_30ChatCompletionStreamedResponseNtNtCseHmADR0RVY9_5serde2de11Deserialize11deserializeNtB6_9___VisitorNtB29_7Visitor9visit_seqINtNtCse05LGF5xr5W_10serde_json2de9SeqAccessNtNtB3H_4read7StrReadEEBj_
FN:99,_RINvXs0_NvXNvNtNtNtNtCsfsPcvtvSBg5_13rag_toolchain7clients7open_ai5model16chat_completionssd_1__NtBb_30ChatCompletionStreamedResponseNtNtCseHmADR0RVY9_5serde2de11Deserialize11deserializeNtB6_9___VisitorNtB29_7Visitor9visit_mapINtNtCse05LGF5xr5W_10serde_json2de9MapAccessNtNtB3H_4read7StrReadEEBj_
FN:109,_RINvXNvXNvNtNtNtNtCsfsPcvtvSBg5_13rag_toolchain7clients7open_ai5model16chat_completionssf_1__NtB8_29ChatCompletionStreamedChoicesNtNtCseHmADR0RVY9_5serde2de11Deserialize11deserializeNtB3_14___FieldVisitorNtB25_7Visitor9visit_strNtNtCse05LGF5xr5W_10serde_json5error5ErrorEBg_
FN:109,_RINvXs_NvXNvNtNtNtNtCsfsPcvtvSBg5_13rag_toolchain7clients7open_ai5model16chat_completionssf_1__NtBa_29ChatCompletionStreamedChoicesNtNtCseHmADR0RVY9_5serde2de11Deserialize11deserializeNtB5_7___FieldB25_11deserializeINtNtCse05LGF5xr5W_10serde_json2de6MapKeyNtNtB3w_4read7StrReadEEBi_
FN:109,_RINvXs0_NvXNvNtNtNtNtCsfsPcvtvSBg5_13rag_toolchain7clients7open_ai5model16chat_completionssf_1__NtBb_29ChatCompletionStreamedChoicesNtNtCseHmADR0RVY9_5serde2de11Deserialize11deserializeNtB6_9___VisitorNtB28_7Visitor9visit_seqINtNtCse05LGF5xr5W_10serde_json2de9SeqAccessNtNtB3G_4read7StrReadEEBj_
FN:109,_RINvXs0_NvXNvNtNtNtNtCsfsPcvtvSBg5_13rag_toolchain7clients7open_ai5model16chat_completionssf_1__NtBb_29ChatCompletionStreamedChoicesNtNtCseHmADR0RVY9_5serde2de11Deserialize11deserializeNtB6_9___VisitorNtB28_7Visitor9visit_mapINtNtCse05LGF5xr5W_10serde_json2de9MapAccessNtNtB3G_4read7StrReadEEBj_
FN:119,_RINvXNvXNvNtNtNtNtCsfsPcvtvSBg5_13rag_toolchain7clients7open_ai5model16chat_completionssh_1__NtB8_19ChatCompletionDeltaNtNtCseHmADR0RVY9_5serde2de11Deserialize11deserializeNtB3_14___FieldVisitorNtB1V_7Visitor9visit_strNtNtCse05LGF5xr5W_10serde_json5error5ErrorEBg_
FN:119,_RINvXs_NvXNvNtNtNtNtCsfsPcvtvSBg5_13rag_toolchain7clients7open_ai5model16chat_completionssh_1__NtBa_19ChatCompletionDeltaNtNtCseHmADR0RVY9_5serde2de11Deserialize11deserializeNtB5_7___FieldB1V_11deserializeINtNtCse05LGF5xr5W_10serde_json2de6MapKeyNtNtB3m_4read7StrReadEEBi_
FN:119,_RINvXs0_NvXNvNtNtNtNtCsfsPcvtvSBg5_13rag_toolchain7clients7open_ai5model16chat_completionssh_1__NtBb_19ChatCompletionDeltaNtNtCseHmADR0RVY9_5serde2de11Deserialize11deserializeNtB6_9___VisitorNtB1Y_7Visitor9visit_seqINtNtCse05LGF5xr5W_10serde_json2de9SeqAccessNtNtB3w_4read7StrReadEEBj_
FN:119,_RINvXs0_NvXNvNtNtNtNtCsfsPcvtvSBg5_13rag_toolchain7clients7open_ai5model16chat_completionssh_1__NtBb_19ChatCompletionDeltaNtNtCseHmADR0RVY9_5serde2de11Deserialize11deserializeNtB6_9___VisitorNtB1Y_7Visitor9visit_mapINtNtCse05LGF5xr5W_10serde_json2de9MapAccessNtNtB3w_4read7StrReadEEBj_
FN:8,_RNvXNvXNvNtNtNtNtCsfsPcvtvSBg5_13rag_toolchain7clients7open_ai5model16chat_completionss_1__NtB7_21ChatCompletionRequestNtNtCseHmADR0RVY9_5serde2de11Deserialize11deserializeNtB2_14___FieldVisitorNtB1V_7Visitor9expecting
FN:8,_RINvXNvXNvNtNtNtNtCsfsPcvtvSBg5_13rag_toolchain7clients7open_ai5model16chat_completionss_1__NtB8_21ChatCompletionRequestNtNtCseHmADR0RVY9_5serde2de11Deserialize11deserializeNtB3_14___FieldVisitorNtB1W_7Visitor10visit_boolpEBg_
FN:8,_RINvXNvXNvNtNtNtNtCsfsPcvtvSBg5_13rag_toolchain7clients7open_ai5model16chat_completionss_1__NtB8_21ChatCompletionRequestNtNtCseHmADR0RVY9_5serde2de11Deserialize11deserializeNtB3_14___FieldVisitorNtB1W_7Visitor8visit_i8pEBg_
FN:8,_RINvXNvXNvNtNtNtNtCsfsPcvtvSBg5_13rag_toolchain7clients7open_ai5model16chat_completionss_1__NtB8_21ChatCompletionRequestNtNtCseHmADR0RVY9_5serde2de11Deserialize11deserializeNtB3_14___FieldVisitorNtB1W_7Visitor9visit_i16pEBg_
FN:8,_RINvXNvXNvNtNtNtNtCsfsPcvtvSBg5_13rag_toolchain7clients7open_ai5model16chat_completionss_1__NtB8_21ChatCompletionRequestNtNtCseHmADR0RVY9_5serde2de11Deserialize11deserializeNtB3_14___FieldVisitorNtB1W_7Visitor9visit_i32pEBg_
FN:8,_RINvXNvXNvNtNtNtNtCsfsPcvtvSBg5_13rag_toolchain7clients7open_ai5model16chat_completionss_1__NtB8_21ChatCompletionRequestNtNtCseHmADR0RVY9_5serde2de11Deserialize11deserializeNtB3_14___FieldVisitorNtB1W_7Visitor9visit_i64pEBg_
FN:8,_RINvXNvXNvNtNtNtNtCsfsPcvtvSBg5_13rag_toolchain7clients7open_ai5model16chat_completionss_1__NtB8_21ChatCompletionRequestNtNtCseHmADR0RVY9_5serde2de11Deserialize11deserializeNtB3_14___FieldVisitorNtB1W_7Visitor8visit_u8pEBg_
FN:8,_RINvXNvXNvNtNtNtNtCsfsPcvtvSBg5_13rag_toolchain7clients7open_ai5model16chat_completionss_1__NtB8_21ChatCompletionRequestNtNtCseHmADR0RVY9_5serde2de11Deserialize11deserializeNtB3_14___FieldVisitorNtB1W_7Visitor9visit_u16pEBg_
FN:8,_RINvXNvXNvNtNtNtNtCsfsPcvtvSBg5_13rag_toolchain7clients7open_ai5model16chat_completionss_1__NtB8_21ChatCompletionRequestNtNtCseHmADR0RVY9_5serde2de11Deserialize11deserializeNtB3_14___FieldVisitorNtB1W_7Visitor9visit_u32pEBg_
FN:8,_RINvXNvXNvNtNtNtNtCsfsPcvtvSBg5_13rag_toolchain7clients7open_ai5model16chat_completionss_1__NtB8_21ChatCompletionRequestNtNtCseHmADR0RVY9_5serde2de11Deserialize11deserializeNtB3_14___FieldVisitorNtB1W_7Visitor9visit_u64pEBg_
FN:8,_RINvXNvXNvNtNtNtNtCsfsPcvtvSBg5_13rag_toolchain7clients7open_ai5model16chat_completionss_1__NtB8_21ChatCompletionRequestNtNtCseHmADR0RVY9_5serde2de11Deserialize11deserializeNtB3_14___FieldVisitorNtB1W_7Visitor9visit_f32pEBg_
FN:8,_RINvXNvXNvNtNtNtNtCsfsPcvtvSBg5_13rag_toolchain7clients7open_ai5model16chat_completionss_1__NtB8_21ChatCompletionRequestNtNtCseHmADR0RVY9_5serde2de11Deserialize11deserializeNtB3_14___FieldVisitorNtB1W_7Visitor9visit_f64pEBg_
FN:8,_RINvXNvXNvNtNtNtNtCsfsPcvtvSBg5_13rag_toolchain7clients7open_ai5model16chat_completionss_1__NtB8_21ChatCompletionRequestNtNtCseHmADR0RVY9_5serde2de11Deserialize11deserializeNtB3_14___FieldVisitorNtB1W_7Visitor10visit_charpEBg_
FN:8,_RINvXNvXNvNtNtNtNtCsfsPcvtvSBg5_13rag_toolchain7clients7open_ai5model16chat_completionss_1__NtB8_21ChatCompletionRequestNtNtCseHmADR0RVY9_5serde2de11Deserialize11deserializeNtB3_14___FieldVisitorNtB1W_7Visitor10visit_unitpEBg_
FN:8,_RINvXNvXNvNtNtNtNtCsfsPcvtvSBg5_13rag_toolchain7clients7open_ai5model16chat_completionss_1__NtB8_21ChatCompletionRequestNtNtCseHmADR0RVY9_5serde2de11Deserialize11deserializeNtB3_14___FieldVisitorNtB1W_7Visitor9visit_strpEBg_
FN:8,_RINvXNvXNvNtNtNtNtCsfsPcvtvSBg5_13rag_toolchain7clients7open_ai5model16chat_completionss_1__NtB8_21ChatCompletionRequestNtNtCseHmADR0RVY9_5serde2de11Deserialize11deserializeNtB3_14___FieldVisitorNtB1W_7Visitor11visit_bytespEBg_
FN:8,_RINvXNvXNvNtNtNtNtCsfsPcvtvSBg5_13rag_toolchain7clients7open_ai5model16chat_completionss_1__NtB8_21ChatCompletionRequestNtNtCseHmADR0RVY9_5serde2de11Deserialize11deserializeNtB3_14___FieldVisitorNtB1W_7Visitor18visit_borrowed_strpEBg_
FN:8,_RINvXNvXNvNtNtNtNtCsfsPcvtvSBg5_13rag_toolchain7clients7open_ai5model16chat_completionss_1__NtB8_21ChatCompletionRequestNtNtCseHmADR0RVY9_5serde2de11Deserialize11deserializeNtB3_14___FieldVisitorNtB1W_7Visitor20visit_borrowed_bytespEBg_
FN:8,_RINvXs_NvXNvNtNtNtNtCsfsPcvtvSBg5_13rag_toolchain7clients7open_ai5model16chat_completionss_1__NtBa_21ChatCompletionRequestNtNtCseHmADR0RVY9_5serde2de11Deserialize11deserializeNtB5_7___FieldB1W_11deserializepEBi_
FN:8,_RNvXs0_NvXNvNtNtNtNtCsfsPcvtvSBg5_13rag_toolchain7clients7open_ai5model16chat_completionss_1__NtBa_21ChatCompletionRequestNtNtCseHmADR0RVY9_5serde2de11Deserialize11deserializeNtB5_9___VisitorNtB1Y_7Visitor9expecting
FN:8,_RINvXs0_NvXNvNtNtNtNtCsfsPcvtvSBg5_13rag_toolchain7clients7open_ai5model16chat_completionss_1__NtBb_21ChatCompletionRequestNtNtCseHmADR0RVY9_5serde2de11Deserialize11deserializeNtB6_9___VisitorNtB1Z_7Visitor9visit_mappEBj_
FN:14,_RNCNvMsh_NtNtNtNtCsfsPcvtvSBg5_13rag_toolchain7clients7open_ai5model16chat_completionsINtB7_28ChatCompletionRequestBuilderTTNtB7_11OpenAIModelETINtNtCsdZExvAaxgia_5alloc3vec3VecNtB7_11ChatMessageEETbEpEE5build0Bf_
FN:19,_RNvXNvXNvNtNtNtNtCsfsPcvtvSBg5_13rag_toolchain7clients7open_ai5model16chat_completionss1_1__NtB7_22ChatCompletionResponseNtNtCseHmADR0RVY9_5serde2de11Deserialize11deserializeNtB2_14___FieldVisitorNtB1X_7Visitor9expecting
FN:19,_RINvXNvXNvNtNtNtNtCsfsPcvtvSBg5_13rag_toolchain7clients7open_ai5model16chat_completionss1_1__NtB8_22ChatCompletionResponseNtNtCseHmADR0RVY9_5serde2de11Deserialize11deserializeNtB3_14___FieldVisitorNtB1Y_7Visitor9visit_u64pEBg_
FN:19,_RINvXNvXNvNtNtNtNtCsfsPcvtvSBg5_13rag_toolchain7clients7open_ai5model16chat_completionss1_1__NtB8_22ChatCompletionResponseNtNtCseHmADR0RVY9_5serde2de11Deserialize11deserializeNtB3_14___FieldVisitorNtB1Y_7Visitor11visit_bytespEBg_
FN:31,_RINvXNvXNvNtNtNtNtCsfsPcvtvSBg5_13rag_toolchain7clients7open_ai5model16chat_completionss3_1__NtB8_15ChatMessageRoleNtNtCseHmADR0RVY9_5serde2de11Deserialize11deserializeNtB3_14___FieldVisitorNtB1R_7Visitor9visit_u64pEBg_
FN:31,_RINvXNvXNvNtNtNtNtCsfsPcvtvSBg5_13rag_toolchain7clients7open_ai5model16chat_completionss3_1__NtB8_15ChatMessageRoleNtNtCseHmADR0RVY9_5serde2de11Deserialize11deserializeNtB3_14___FieldVisitorNtB1R_7Visitor11visit_bytespEBg_
FN:31,_RNvXs0_NvXNvNtNtNtNtCsfsPcvtvSBg5_13rag_toolchain7clients7open_ai5model16chat_completionss3_1__NtBa_15ChatMessageRoleNtNtCseHmADR0RVY9_5serde2de11Deserialize11deserializeNtB5_9___VisitorNtB1T_7Visitor9expecting
FN:39,_RNvXNvXNvNtNtNtNtCsfsPcvtvSBg5_13rag_toolchain7clients7open_ai5model16chat_completionss5_1__NtB7_11OpenAIModelNtNtCseHmADR0RVY9_5serde2de11Deserialize11deserializeNtB2_14___FieldVisitorNtB1M_7Visitor9expecting
FN:39,_RINvXNvXNvNtNtNtNtCsfsPcvtvSBg5_13rag_toolchain7clients7open_ai5model16chat_completionss5_1__NtB8_11OpenAIModelNtNtCseHmADR0RVY9_5serde2de11Deserialize11deserializeNtB3_14___FieldVisitorNtB1N_7Visitor9visit_u64pEBg_
FN:39,_RINvXNvXNvNtNtNtNtCsfsPcvtvSBg5_13rag_toolchain7clients7open_ai5model16chat_completionss5_1__NtB8_11OpenAIModelNtNtCseHmADR0RVY9_5serde2de11Deserialize11deserializeNtB3_14___FieldVisitorNtB1N_7Visitor9visit_strpEBg_
FN:39,_RINvXNvXNvNtNtNtNtCsfsPcvtvSBg5_13rag_toolchain7clients7open_ai5model16chat_completionss5_1__NtB8_11OpenAIModelNtNtCseHmADR0RVY9_5serde2de11Deserialize11deserializeNtB3_14___FieldVisitorNtB1N_7Visitor11visit_bytespEBg_
FN:39,_RINvXs_NvXNvNtNtNtNtCsfsPcvtvSBg5_13rag_toolchain7clients7open_ai5model16chat_completionss5_1__NtBa_11OpenAIModelNtNtCseHmADR0RVY9_5serde2de11Deserialize11deserializeNtB5_7___FieldB1N_11deserializepEBi_
FN:39,_RNvXs0_NvXNvNtNtNtNtCsfsPcvtvSBg5_13rag_toolchain7clients7open_ai5model16chat_completionss5_1__NtBa_11OpenAIModelNtNtCseHmADR0RVY9_5serde2de11Deserialize11deserializeNtB5_9___VisitorNtB1P_7Visitor9expecting
FN:39,_RINvXs0_NvXNvNtNtNtNtCsfsPcvtvSBg5_13rag_toolchain7clients7open_ai5model16chat_completionss5_1__NtBb_11OpenAIModelNtNtCseHmADR0RVY9_5serde2de11Deserialize11deserializeNtB6_9___VisitorNtB1Q_7Visitor10visit_enumpEBj_
FN:48,_RNvXNvXNvNtNtNtNtCsfsPcvtvSBg5_13rag_toolchain7clients7open_ai5model16chat_completionss7_1__NtB7_11ChatMessageNtNtCseHmADR0RVY9_5serde2de11Deserialize11deserializeNtB2_14___FieldVisitorNtB1M_7Visitor9expecting
FN:48,_RINvXNvXNvNtNtNtNtCsfsPcvtvSBg5_13rag_toolchain7clients7open_ai5model16chat_completionss7_1__NtB8_11ChatMessageNtNtCseHmADR0RVY9_5serde2de11Deserialize11deserializeNtB3_14___FieldVisitorNtB1N_7Visitor9visit_u64pEBg_
FN:48,_RINvXNvXNvNtNtNtNtCsfsPcvtvSBg5_13rag_toolchain7clients7open_ai5model16chat_completionss7_1__NtB8_11ChatMessageNtNtCseHmADR0RVY9_5serde2de11Deserialize11deserializeNtB3_14___FieldVisitorNtB1N_7Visitor11visit_bytespEBg_
FN:83,_RNvXNvXNvNtNtNtNtCsfsPcvtvSBg5_13rag_toolchain7clients7open_ai5model16chat_completionss9_1__NtB7_5UsageNtNtCseHmADR0RVY9_5serde2de11Deserialize11deserializeNtB2_14___FieldVisitorNtB1F_7Visitor9expecting
FN:83,_RINvXNvXNvNtNtNtNtCsfsPcvtvSBg5_13rag_toolchain7clients7open_ai5model16chat_completionss9_1__NtB8_5UsageNtNtCseHmADR0RVY9_5serde2de11Deserialize11deserializeNtB3_14___FieldVisitorNtB1G_7Visitor9visit_u64pEBg_
FN:83,_RINvXNvXNvNtNtNtNtCsfsPcvtvSBg5_13rag_toolchain7clients7open_ai5model16chat_completionss9_1__NtB8_5UsageNtNtCseHmADR0RVY9_5serde2de11Deserialize11deserializeNtB3_14___FieldVisitorNtB1G_7Visitor11visit_bytespEBg_
FN:90,_RNvXNvXNvNtNtNtNtCsfsPcvtvSBg5_13rag_toolchain7clients7open_ai5model16chat_completionssb_1__NtB7_21ChatCompletionChoicesNtNtCseHmADR0RVY9_5serde2de11Deserialize11deserializeNtB2_14___FieldVisitorNtB1W_7Visitor9expecting
FN:90,_RINvXNvXNvNtNtNtNtCsfsPcvtvSBg5_13rag_toolchain7clients7open_ai5model16chat_completionssb_1__NtB8_21ChatCompletionChoicesNtNtCseHmADR0RVY9_5serde2de11Deserialize11deserializeNtB3_14___FieldVisitorNtB1X_7Visitor9visit_u64pEBg_
FN:90,_RINvXNvXNvNtNtNtNtCsfsPcvtvSBg5_13rag_toolchain7clients7open_ai5model16chat_completionssb_1__NtB8_21ChatCompletionChoicesNtNtCseHmADR0RVY9_5serde2de11Deserialize11deserializeNtB3_14___FieldVisitorNtB1X_7Visitor11visit_bytespEBg_
FN:99,_RNvXNvXNvNtNtNtNtCsfsPcvtvSBg5_13rag_toolchain7clients7open_ai5model16chat_completionssd_1__NtB7_30ChatCompletionStreamedResponseNtNtCseHmADR0RVY9_5serde2de11Deserialize11deserializeNtB2_14___FieldVisitorNtB25_7Visitor9expecting
FN:99,_RINvXNvXNvNtNtNtNtCsfsPcvtvSBg5_13rag_toolchain7clients7open_ai5model16chat_completionssd_1__NtB8_30ChatCompletionStreamedResponseNtNtCseHmADR0RVY9_5serde2de11Deserialize11deserializeNtB3_14___FieldVisitorNtB26_7Visitor9visit_u64pEBg_
FN:99,_RINvXNvXNvNtNtNtNtCsfsPcvtvSBg5_13rag_toolchain7clients7open_ai5model16chat_completionssd_1__NtB8_30ChatCompletionStreamedResponseNtNtCseHmADR0RVY9_5serde2de11Deserialize11deserializeNtB3_14___FieldVisitorNtB26_7Visitor11visit_bytespEBg_
FN:109,_RNvXNvXNvNtNtNtNtCsfsPcvtvSBg5_13rag_toolchain7clients7open_ai5model16chat_completionssf_1__NtB7_29ChatCompletionStreamedChoicesNtNtCseHmADR0RVY9_5serde2de11Deserialize11deserializeNtB2_14___FieldVisitorNtB24_7Visitor9expecting
FN:109,_RINvXNvXNvNtNtNtNtCsfsPcvtvSBg5_13rag_toolchain7clients7open_ai5model16chat_completionssf_1__NtB8_29ChatCompletionStreamedChoicesNtNtCseHmADR0RVY9_5serde2de11Deserialize11deserializeNtB3_14___FieldVisitorNtB25_7Visitor9visit_u64pEBg_
FN:109,_RINvXNvXNvNtNtNtNtCsfsPcvtvSBg5_13rag_toolchain7clients7open_ai5model16chat_completionssf_1__NtB8_29ChatCompletionStreamedChoicesNtNtCseHmADR0RVY9_5serde2de11Deserialize11deserializeNtB3_14___FieldVisitorNtB25_7Visitor11visit_bytespEBg_
FN:119,_RNvXNvXNvNtNtNtNtCsfsPcvtvSBg5_13rag_toolchain7clients7open_ai5model16chat_completionssh_1__NtB7_19ChatCompletionDeltaNtNtCseHmADR0RVY9_5serde2de11Deserialize11deserializeNtB2_14___FieldVisitorNtB1U_7Visitor9expecting
FN:119,_RINvXNvXNvNtNtNtNtCsfsPcvtvSBg5_13rag_toolchain7clients7open_ai5model16chat_completionssh_1__NtB8_19ChatCompletionDeltaNtNtCseHmADR0RVY9_5serde2de11Deserialize11deserializeNtB3_14___FieldVisitorNtB1V_7Visitor9visit_u64pEBg_
FN:119,_RINvXNvXNvNtNtNtNtCsfsPcvtvSBg5_13rag_toolchain7clients7open_ai5model16chat_completionssh_1__NtB8_19ChatCompletionDeltaNtNtCseHmADR0RVY9_5serde2de11Deserialize11deserializeNtB3_14___FieldVisitorNtB1V_7Visitor11visit_bytespEBg_
FN:152,_RNvNtNtNtNtNtCsfsPcvtvSBg5_13rag_toolchain7clients7open_ai5model16chat_completions19request_model_testss_39test_chat_completion_request_serializes
FN:181,_RNvNtNtNtNtNtCsfsPcvtvSBg5_13rag_toolchain7clients7open_ai5model16chat_completions19request_model_testss_43test_chat_completions_response_deserializes
FN:210,_RNvNtNtNtNtNtCsfsPcvtvSBg5_13rag_toolchain7clients7open_ai5model16chat_completions19request_model_testss_53test_chat_completions_streaming_response_deserializes
FN:55,_RNvXNtNtNtNtCsfsPcvtvSBg5_13rag_toolchain7clients7open_ai5model16chat_completionsNtB2_11ChatMessageINtNtCsaYZPK01V26L_4core7convert4FromNtNtB8_5types13PromptMessageE4from
FN:19,_RNvXs0_NvXNvNtNtNtNtCsfsPcvtvSBg5_13rag_toolchain7clients7open_ai5model16chat_completionss1_1__NtBa_22ChatCompletionResponseNtNtCseHmADR0RVY9_5serde2de11Deserialize11deserializeNtB5_9___VisitorNtB20_7Visitor9expecting
FN:31,_RNvXNvXNvNtNtNtNtCsfsPcvtvSBg5_13rag_toolchain7clients7open_ai5model16chat_completionss3_1__NtB7_15ChatMessageRoleNtNtCseHmADR0RVY9_5serde2de11Deserialize11deserializeNtB2_14___FieldVisitorNtB1Q_7Visitor9expecting
FN:48,_RNvXs0_NvXNvNtNtNtNtCsfsPcvtvSBg5_13rag_toolchain7clients7open_ai5model16chat_completionss7_1__NtBa_11ChatMessageNtNtCseHmADR0RVY9_5serde2de11Deserialize11deserializeNtB5_9___VisitorNtB1P_7Visitor9expecting
FN:83,_RNvXs0_NvXNvNtNtNtNtCsfsPcvtvSBg5_13rag_toolchain7clients7open_ai5model16chat_completionss9_1__NtBa_5UsageNtNtCseHmADR0RVY9_5serde2de11Deserialize11deserializeNtB5_9___VisitorNtB1I_7Visitor9expecting
FN:90,_RNvXs0_NvXNvNtNtNtNtCsfsPcvtvSBg5_13rag_toolchain7clients7open_ai5model16chat_completionssb_1__NtBa_21ChatCompletionChoicesNtNtCseHmADR0RVY9_5serde2de11Deserialize11deserializeNtB5_9___VisitorNtB1Z_7Visitor9expecting
FN:99,_RNvXs0_NvXNvNtNtNtNtCsfsPcvtvSBg5_13rag_toolchain7clients7open_ai5model16chat_completionssd_1__NtBa_30ChatCompletionStreamedResponseNtNtCseHmADR0RVY9_5serde2de11Deserialize11deserializeNtB5_9___VisitorNtB28_7Visitor9expecting
FN:109,_RNvXs0_NvXNvNtNtNtNtCsfsPcvtvSBg5_13rag_toolchain7clients7open_ai5model16chat_completionssf_1__NtBa_29ChatCompletionStreamedChoicesNtNtCseHmADR0RVY9_5serde2de11Deserialize11deserializeNtB5_9___VisitorNtB27_7Visitor9expecting
FN:119,_RNvXs0_NvXNvNtNtNtNtCsfsPcvtvSBg5_13rag_toolchain7clients7open_ai5model16chat_completionssh_1__NtBa_19ChatCompletionDeltaNtNtCseHmADR0RVY9_5serde2de11Deserialize11deserializeNtB5_9___VisitorNtB1X_7Visitor9expecting
FN:74,_RNvXs_NtNtNtNtCsfsPcvtvSBg5_13rag_toolchain7clients7open_ai5model16chat_completionsNtNtBa_5types13PromptMessageINtNtCsaYZPK01V26L_4core7convert4FromNtB4_11ChatMessageE4from
FNDA:14,_RINvXNvXNvNtNtNtNtCsfsPcvtvSBg5_13rag_toolchain7clients7open_ai5model16chat_completionss1_1__NtB8_22ChatCompletionResponseNtNtCseHmADR0RVY9_5serde2de11Deserialize11deserializeNtB3_14___FieldVisitorNtB1Y_7Visitor9visit_strNtNtCse05LGF5xr5W_10serde_json5error5ErrorEBg_
FNDA:14,_RINvXs_NvXNvNtNtNtNtCsfsPcvtvSBg5_13rag_toolchain7clients7open_ai5model16chat_completionss1_1__NtBa_22ChatCompletionResponseNtNtCseHmADR0RVY9_5serde2de11Deserialize11deserializeNtB5_7___FieldB1Y_11deserializeINtNtCse05LGF5xr5W_10serde_json2de6MapKeyNtNtB3p_4read7StrReadEEBi_
FNDA:0,_RINvXs0_NvXNvNtNtNtNtCsfsPcvtvSBg5_13rag_toolchain7clients7open_ai5model16chat_completionss1_1__NtBb_22ChatCompletionResponseNtNtCseHmADR0RVY9_5serde2de11Deserialize11deserializeNtB6_9___VisitorNtB21_7Visitor9visit_seqINtNtCse05LGF5xr5W_10serde_json2de9SeqAccessNtNtB3z_4read7StrReadEEBj_
FNDA:2,_RINvXs0_NvXNvNtNtNtNtCsfsPcvtvSBg5_13rag_toolchain7clients7open_ai5model16chat_completionss1_1__NtBb_22ChatCompletionResponseNtNtCseHmADR0RVY9_5serde2de11Deserialize11deserializeNtB6_9___VisitorNtB21_7Visitor9visit_mapINtNtCse05LGF5xr5W_10serde_json2de9MapAccessNtNtB3z_4read7StrReadEEBj_
FNDA:3,_RINvXNvXNvNtNtNtNtCsfsPcvtvSBg5_13rag_toolchain7clients7open_ai5model16chat_completionss3_1__NtB8_15ChatMessageRoleNtNtCseHmADR0RVY9_5serde2de11Deserialize11deserializeNtB3_14___FieldVisitorNtB1R_7Visitor9visit_strNtNtCse05LGF5xr5W_10serde_json5error5ErrorEBg_
FNDA:3,_RINvXs_NvXNvNtNtNtNtCsfsPcvtvSBg5_13rag_toolchain7clients7open_ai5model16chat_completionss3_1__NtBa_15ChatMessageRoleNtNtCseHmADR0RVY9_5serde2de11Deserialize11deserializeNtB5_7___FieldB1R_11deserializeQINtNtCse05LGF5xr5W_10serde_json2de12DeserializerNtNtB3j_4read7StrReadEEBi_
FNDA:0,_RINvXs0_NvXNvNtNtNtNtCsfsPcvtvSBg5_13rag_toolchain7clients7open_ai5model16chat_completionss3_1__NtBb_15ChatMessageRoleNtNtCseHmADR0RVY9_5serde2de11Deserialize11deserializeNtB6_9___VisitorNtB1U_7Visitor10visit_enumINtNtCse05LGF5xr5W_10serde_json2de13VariantAccessNtNtB3u_4read7StrReadEEBj_
FNDA:3,_RINvXs0_NvXNvNtNtNtNtCsfsPcvtvSBg5_13rag_toolchain7clients7open_ai5model16chat_completionss3_1__NtBb_15ChatMessageRoleNtNtCseHmADR0RVY9_5serde2de11Deserialize11deserializeNtB6_9___VisitorNtB1U_7Visitor10visit_enumINtNtCse05LGF5xr5W_10serde_json2de17UnitVariantAccessNtNtB3u_4read7StrReadEEBj_
FNDA:4,_RINvXNvXNvNtNtNtNtCsfsPcvtvSBg5_13rag_toolchain7clients7open_ai5model16chat_completionss7_1__NtB8_11ChatMessageNtNtCseHmADR0RVY9_5serde2de11Deserialize11deserializeNtB3_14___FieldVisitorNtB1N_7Visitor9visit_strNtNtCse05LGF5xr5W_10serde_json5error5ErrorEBg_
FNDA:4,_RINvXs_NvXNvNtNtNtNtCsfsPcvtvSBg5_13rag_toolchain7clients7open_ai5model16chat_completionss7_1__NtBa_11ChatMessageNtNtCseHmADR0RVY9_5serde2de11Deserialize11deserializeNtB5_7___FieldB1N_11deserializeINtNtCse05LGF5xr5W_10serde_json2de6MapKeyNtNtB3e_4read7StrReadEEBi_
FNDA:0,_RINvXs0_NvXNvNtNtNtNtCsfsPcvtvSBg5_13rag_toolchain7clients7open_ai5model16chat_completionss7_1__NtBb_11ChatMessageNtNtCseHmADR0RVY9_5serde2de11Deserialize11deserializeNtB6_9___VisitorNtB1Q_7Visitor9visit_seqINtNtCse05LGF5xr5W_10serde_json2de9SeqAccessNtNtB3o_4read7StrReadEEBj_
FNDA:2,_RINvXs0_NvXNvNtNtNtNtCsfsPcvtvSBg5_13rag_toolchain7clients7open_ai5model16chat_completionss7_1__NtBb_11ChatMessageNtNtCseHmADR0RVY9_5serde2de11Deserialize11deserializeNtB6_9___VisitorNtB1Q_7Visitor9visit_mapINtNtCse05LGF5xr5W_10serde_json2de9MapAccessNtNtB3o_4read7StrReadEEBj_
FNDA:6,_RINvXNvXNvNtNtNtNtCsfsPcvtvSBg5_13rag_toolchain7clients7open_ai5model16chat_completionss9_1__NtB8_5UsageNtNtCseHmADR0RVY9_5serde2de11Deserialize11deserializeNtB3_14___FieldVisitorNtB1G_7Visitor9visit_strNtNtCse05LGF5xr5W_10serde_json5error5ErrorEBg_
FNDA:6,_RINvXs_NvXNvNtNtNtNtCsfsPcvtvSBg5_13rag_toolchain7clients7open_ai5model16chat_completionss9_1__NtBa_5UsageNtNtCseHmADR0RVY9_5serde2de11Deserialize11deserializeNtB5_7___FieldB1G_11deserializeINtNtCse05LGF5xr5W_10serde_json2de6MapKeyNtNtB37_4read7StrReadEEBi_
FNDA:0,_RINvXs0_NvXNvNtNtNtNtCsfsPcvtvSBg5_13rag_toolchain7clients7open_ai5model16chat_completionss9_1__NtBb_5UsageNtNtCseHmADR0RVY9_5serde2de11Deserialize11deserializeNtB6_9___VisitorNtB1J_7Visitor9visit_seqINtNtCse05LGF5xr5W_10serde_json2de9SeqAccessNtNtB3h_4read7StrReadEEBj_
FNDA:2,_RINvXs0_NvXNvNtNtNtNtCsfsPcvtvSBg5_13rag_toolchain7clients7open_ai5model16chat_completionss9_1__NtBb_5UsageNtNtCseHmADR0RVY9_5serde2de11Deserialize11deserializeNtB6_9___VisitorNtB1J_7Visitor9visit_mapINtNtCse05LGF5xr5W_10serde_json2de9MapAccessNtNtB3h_4read7StrReadEEBj_
FNDA:8,_RINvXNvXNvNtNtNtNtCsfsPcvtvSBg5_13rag_toolchain7clients7open_ai5model16chat_completionssb_1__NtB8_21ChatCompletionChoicesNtNtCseHmADR0RVY9_5serde2de11Deserialize11deserializeNtB3_14___FieldVisitorNtB1X_7Visitor9visit_strNtNtCse05LGF5xr5W_10serde_json5error5ErrorEBg_
FNDA:8,_RINvXs_NvXNvNtNtNtNtCsfsPcvtvSBg5_13rag_toolchain7clients7open_ai5model16chat_completionssb_1__NtBa_21ChatCompletionChoicesNtNtCseHmADR0RVY9_5serde2de11Deserialize11deserializeNtB5_7___FieldB1X_11deserializeINtNtCse05LGF5xr5W_10serde_json2de6MapKeyNtNtB3o_4read7StrReadEEBi_
FNDA:0,_RINvXs0_NvXNvNtNtNtNtCsfsPcvtvSBg5_13rag_toolchain7clients7open_ai5model16chat_completionssb_1__NtBb_21ChatCompletionChoicesNtNtCseHmADR0RVY9_5serde2de11Deserialize11deserializeNtB6_9___VisitorNtB20_7Visitor9visit_seqINtNtCse05LGF5xr5W_10serde_json2de9SeqAccessNtNtB3y_4read7StrReadEEBj_
FNDA:2,_RINvXs0_NvXNvNtNtNtNtCsfsPcvtvSBg5_13rag_toolchain7clients7open_ai5model16chat_completionssb_1__NtBb_21ChatCompletionChoicesNtNtCseHmADR0RVY9_5serde2de11Deserialize11deserializeNtB6_9___VisitorNtB20_7Visitor9visit_mapINtNtCse05LGF5xr5W_10serde_json2de9MapAccessNtNtB3y_4read7StrReadEEBj_
FNDA:6,_RINvXNvXNvNtNtNtNtCsfsPcvtvSBg5_13rag_toolchain7clients7open_ai5model16chat_completionssd_1__NtB8_30ChatCompletionStreamedResponseNtNtCseHmADR0RVY9_5serde2de11Deserialize11deserializeNtB3_14___FieldVisitorNtB26_7Visitor9visit_strNtNtCse05LGF5xr5W_10serde_json5error5ErrorEBg_
FNDA:6,_RINvXs_NvXNvNtNtNtNtCsfsPcvtvSBg5_13rag_toolchain7clients7open_ai5model16chat_completionssd_1__NtBa_30ChatCompletionStreamedResponseNtNtCseHmADR0RVY9_5serde2de11Deserialize11deserializeNtB5_7___FieldB26_11deserializeINtNtCse05LGF5xr5W_10serde_json2de6MapKeyNtNtB3x_4read7StrReadEEBi_
FNDA:0,_RINvXs0_NvXNvNtNtNtNtCsfsPcvtvSBg5_13rag_toolchain7clients7open_ai5model16chat_completionssd_1__NtBb_30ChatCompletionStreamedResponseNtNtCseHmADR0RVY9_5serde2de11Deserialize11deserializeNtB6_9___VisitorNtB29_7Visitor9visit_seqINtNtCse05LGF5xr5W_10serde_json2de9SeqAccessNtNtB3H_4read7StrReadEEBj_
FNDA:1,_RINvXs0_NvXNvNtNtNtNtCsfsPcvtvSBg5_13rag_toolchain7clients7open_ai5model16chat_completionssd_1__NtBb_30ChatCompletionStreamedResponseNtNtCseHmADR0RVY9_5serde2de11Deserialize11deserializeNtB6_9___VisitorNtB29_7Visitor9visit_mapINtNtCse05LGF5xr5W_10serde_json2de9MapAccessNtNtB3H_4read7StrReadEEBj_
FNDA:4,_RINvXNvXNvNtNtNtNtCsfsPcvtvSBg5_13rag_toolchain7clients7open_ai5model16chat_completionssf_1__NtB8_29ChatCompletionStreamedChoicesNtNtCseHmADR0RVY9_5serde2de11Deserialize11deserializeNtB3_14___FieldVisitorNtB25_7Visitor9visit_strNtNtCse05LGF5xr5W_10serde_json5error5ErrorEBg_
FNDA:4,_RINvXs_NvXNvNtNtNtNtCsfsPcvtvSBg5_13rag_toolchain7clients7open_ai5model16chat_completionssf_1__NtBa_29ChatCompletionStreamedChoicesNtNtCseHmADR0RVY9_5serde2de11Deserialize11deserializeNtB5_7___FieldB25_11deserializeINtNtCse05LGF5xr5W_10serde_json2de6MapKeyNtNtB3w_4read7StrReadEEBi_
FNDA:0,_RINvXs0_NvXNvNtNtNtNtCsfsPcvtvSBg5_13rag_toolchain7clients7open_ai5model16chat_completionssf_1__NtBb_29ChatCompletionStreamedChoicesNtNtCseHmADR0RVY9_5serde2de11Deserialize11deserializeNtB6_9___VisitorNtB28_7Visitor9visit_seqINtNtCse05LGF5xr5W_10serde_json2de9SeqAccessNtNtB3G_4read7StrReadEEBj_
FNDA:1,_RINvXs0_NvXNvNtNtNtNtCsfsPcvtvSBg5_13rag_toolchain7clients7open_ai5model16chat_completionssf_1__NtBb_29ChatCompletionStreamedChoicesNtNtCseHmADR0RVY9_5serde2de11Deserialize11deserializeNtB6_9___VisitorNtB28_7Visitor9visit_mapINtNtCse05LGF5xr5W_10serde_json2de9MapAccessNtNtB3G_4read7StrReadEEBj_
FNDA:2,_RINvXNvXNvNtNtNtNtCsfsPcvtvSBg5_13rag_toolchain7clients7open_ai5model16chat_completionssh_1__NtB8_19ChatCompletionDeltaNtNtCseHmADR0RVY9_5serde2de11Deserialize11deserializeNtB3_14___FieldVisitorNtB1V_7Visitor9visit_strNtNtCse05LGF5xr5W_10serde_json5error5ErrorEBg_
FNDA:2,_RINvXs_NvXNvNtNtNtNtCsfsPcvtvSBg5_13rag_toolchain7clients7open_ai5model16chat_completionssh_1__NtBa_19ChatCompletionDeltaNtNtCseHmADR0RVY9_5serde2de11Deserialize11deserializeNtB5_7___FieldB1V_11deserializeINtNtCse05LGF5xr5W_10serde_json2de6MapKeyNtNtB3m_4read7StrReadEEBi_
FNDA:0,_RINvXs0_NvXNvNtNtNtNtCsfsPcvtvSBg5_13rag_toolchain7clients7open_ai5model16chat_completionssh_1__NtBb_19ChatCompletionDeltaNtNtCseHmADR0RVY9_5serde2de11Deserialize11deserializeNtB6_9___VisitorNtB1Y_7Visitor9visit_seqINtNtCse05LGF5xr5W_10serde_json2de9SeqAccessNtNtB3w_4read7StrReadEEBj_
FNDA:1,_RINvXs0_NvXNvNtNtNtNtCsfsPcvtvSBg5_13rag_toolchain7clients7open_ai5model16chat_completionssh_1__NtBb_19ChatCompletionDeltaNtNtCseHmADR0RVY9_5serde2de11Deserialize11deserializeNtB6_9___VisitorNtB1Y_7Visitor9visit_mapINtNtCse05LGF5xr5W_10serde_json2de9MapAccessNtNtB3w_4read7StrReadEEBj_
FNDA:0,_RNvXNvXNvNtNtNtNtCsfsPcvtvSBg5_13rag_toolchain7clients7open_ai5model16chat_completionss_1__NtB7_21ChatCompletionRequestNtNtCseHmADR0RVY9_5serde2de11Deserialize11deserializeNtB2_14___FieldVisitorNtB1V_7Visitor9expecting
FNDA:0,_RINvXNvXNvNtNtNtNtCsfsPcvtvSBg5_13rag_toolchain7clients7open_ai5model16chat_completionss_1__NtB8_21ChatCompletionRequestNtNtCseHmADR0RVY9_5serde2de11Deserialize11deserializeNtB3_14___FieldVisitorNtB1W_7Visitor10visit_boolpEBg_
FNDA:0,_RINvXNvXNvNtNtNtNtCsfsPcvtvSBg5_13rag_toolchain7clients7open_ai5model16chat_completionss_1__NtB8_21ChatCompletionRequestNtNtCseHmADR0RVY9_5serde2de11Deserialize11deserializeNtB3_14___FieldVisitorNtB1W_7Visitor8visit_i8pEBg_
FNDA:0,_RINvXNvXNvNtNtNtNtCsfsPcvtvSBg5_13rag_toolchain7clients7open_ai5model16chat_completionss_1__NtB8_21ChatCompletionRequestNtNtCseHmADR0RVY9_5serde2de11Deserialize11deserializeNtB3_14___FieldVisitorNtB1W_7Visitor9visit_i16pEBg_
FNDA:0,_RINvXNvXNvNtNtNtNtCsfsPcvtvSBg5_13rag_toolchain7clients7open_ai5model16chat_completionss_1__NtB8_21ChatCompletionRequestNtNtCseHmADR0RVY9_5serde2de11Deserialize11deserializeNtB3_14___FieldVisitorNtB1W_7Visitor9visit_i32pEBg_
FNDA:0,_RINvXNvXNvNtNtNtNtCsfsPcvtvSBg5_13rag_toolchain7clients7open_ai5model16chat_completionss_1__NtB8_21ChatCompletionRequestNtNtCseHmADR0RVY9_5serde2de11Deserialize11deserializeNtB3_14___FieldVisitorNtB1W_7Visitor9visit_i64pEBg_
FNDA:0,_RINvXNvXNvNtNtNtNtCsfsPcvtvSBg5_13rag_toolchain7clients7open_ai5model16chat_completionss_1__NtB8_21ChatCompletionRequestNtNtCseHmADR0RVY9_5serde2de11Deserialize11deserializeNtB3_14___FieldVisitorNtB1W_7Visitor8visit_u8pEBg_
FNDA:0,_RINvXNvXNvNtNtNtNtCsfsPcvtvSBg5_13rag_toolchain7clients7open_ai5model16chat_completionss_1__NtB8_21ChatCompletionRequestNtNtCseHmADR0RVY9_5serde2de11Deserialize11deserializeNtB3_14___FieldVisitorNtB1W_7Visitor9visit_u16pEBg_
FNDA:0,_RINvXNvXNvNtNtNtNtCsfsPcvtvSBg5_13rag_toolchain7clients7open_ai5model16chat_completionss_1__NtB8_21ChatCompletionRequestNtNtCseHmADR0RVY9_5serde2de11Deserialize11deserializeNtB3_14___FieldVisitorNtB1W_7Visitor9visit_u32pEBg_
FNDA:0,_RINvXNvXNvNtNtNtNtCsfsPcvtvSBg5_13rag_toolchain7clients7open_ai5model16chat_completionss_1__NtB8_21ChatCompletionRequestNtNtCseHmADR0RVY9_5serde2de11Deserialize11deserializeNtB3_14___FieldVisitorNtB1W_7Visitor9visit_u64pEBg_
FNDA:0,_RINvXNvXNvNtNtNtNtCsfsPcvtvSBg5_13rag_toolchain7clients7open_ai5model16chat_completionss_1__NtB8_21ChatCompletionRequestNtNtCseHmADR0RVY9_5serde2de11Deserialize11deserializeNtB3_14___FieldVisitorNtB1W_7Visitor9visit_f32pEBg_
FNDA:0,_RINvXNvXNvNtNtNtNtCsfsPcvtvSBg5_13rag_toolchain7clients7open_ai5model16chat_completionss_1__NtB8_21ChatCompletionRequestNtNtCseHmADR0RVY9_5serde2de11Deserialize11deserializeNtB3_14___FieldVisitorNtB1W_7Visitor9visit_f64pEBg_
FNDA:0,_RINvXNvXNvNtNtNtNtCsfsPcvtvSBg5_13rag_toolchain7clients7open_ai5model16chat_completionss_1__NtB8_21ChatCompletionRequestNtNtCseHmADR0RVY9_5serde2de11Deserialize11deserializeNtB3_14___FieldVisitorNtB1W_7Visitor10visit_charpEBg_
FNDA:0,_RINvXNvXNvNtNtNtNtCsfsPcvtvSBg5_13rag_toolchain7clients7open_ai5model16chat_completionss_1__NtB8_21ChatCompletionRequestNtNtCseHmADR0RVY9_5serde2de11Deserialize11deserializeNtB3_14___FieldVisitorNtB1W_7Visitor10visit_unitpEBg_
FNDA:0,_RINvXNvXNvNtNtNtNtCsfsPcvtvSBg5_13rag_toolchain7clients7open_ai5model16chat_completionss_1__NtB8_21ChatCompletionRequestNtNtCseHmADR0RVY9_5serde2de11Deserialize11deserializeNtB3_14___FieldVisitorNtB1W_7Visitor9visit_strpEBg_
FNDA:0,_RINvXNvXNvNtNtNtNtCsfsPcvtvSBg5_13rag_toolchain7clients7open_ai5model16chat_completionss_1__NtB8_21ChatCompletionRequestNtNtCseHmADR0RVY9_5serde2de11Deserialize11deserializeNtB3_14___FieldVisitorNtB1W_7Visitor11visit_bytespEBg_
FNDA:0,_RINvXNvXNvNtNtNtNtCsfsPcvtvSBg5_13rag_toolchain7clients7open_ai5model16chat_completionss_1__NtB8_21ChatCompletionRequestNtNtCseHmADR0RVY9_5serde2de11Deserialize11deserializeNtB3_14___FieldVisitorNtB1W_7Visitor18visit_borrowed_strpEBg_
FNDA:0,_RINvXNvXNvNtNtNtNtCsfsPcvtvSBg5_13rag_toolchain7clients7open_ai5model16chat_completionss_1__NtB8_21ChatCompletionRequestNtNtCseHmADR0RVY9_5serde2de11Deserialize11deserializeNtB3_14___FieldVisitorNtB1W_7Visitor20visit_borrowed_bytespEBg_
FNDA:0,_RINvXs_NvXNvNtNtNtNtCsfsPcvtvSBg5_13rag_toolchain7clients7open_ai5model16chat_completionss_1__NtBa_21ChatCompletionRequestNtNtCseHmADR0RVY9_5serde2de11Deserialize11deserializeNtB5_7___FieldB1W_11deserializepEBi_
FNDA:0,_RNvXs0_NvXNvNtNtNtNtCsfsPcvtvSBg5_13rag_toolchain7clients7open_ai5model16chat_completionss_1__NtBa_21ChatCompletionRequestNtNtCseHmADR0RVY9_5serde2de11Deserialize11deserializeNtB5_9___VisitorNtB1Y_7Visitor9expecting
FNDA:0,_RINvXs0_NvXNvNtNtNtNtCsfsPcvtvSBg5_13rag_toolchain7clients7open_ai5model16chat_completionss_1__NtBb_21ChatCompletionRequestNtNtCseHmADR0RVY9_5serde2de11Deserialize11deserializeNtB6_9___VisitorNtB1Z_7Visitor9visit_mappEBj_
FNDA:0,_RNCNvMsh_NtNtNtNtCsfsPcvtvSBg5_13rag_toolchain7clients7open_ai5model16chat_completionsINtB7_28ChatCompletionRequestBuilderTTNtB7_11OpenAIModelETINtNtCsdZExvAaxgia_5alloc3vec3VecNtB7_11ChatMessageEETbEpEE5build0Bf_
FNDA:0,_RNvXNvXNvNtNtNtNtCsfsPcvtvSBg5_13rag_toolchain7clients7open_ai5model16chat_completionss1_1__NtB7_22ChatCompletionResponseNtNtCseHmADR0RVY9_5serde2de11Deserialize11deserializeNtB2_14___FieldVisitorNtB1X_7Visitor9expecting
FNDA:0,_RINvXNvXNvNtNtNtNtCsfsPcvtvSBg5_13rag_toolchain7clients7open_ai5model16chat_completionss1_1__NtB8_22ChatCompletionResponseNtNtCseHmADR0RVY9_5serde2de11Deserialize11deserializeNtB3_14___FieldVisitorNtB1Y_7Visitor9visit_u64pEBg_
FNDA:0,_RINvXNvXNvNtNtNtNtCsfsPcvtvSBg5_13rag_toolchain7clients7open_ai5model16chat_completionss1_1__NtB8_22ChatCompletionResponseNtNtCseHmADR0RVY9_5serde2de11Deserialize11deserializeNtB3_14___FieldVisitorNtB1Y_7Visitor11visit_bytespEBg_
FNDA:0,_RINvXNvXNvNtNtNtNtCsfsPcvtvSBg5_13rag_toolchain7clients7open_ai5model16chat_completionss3_1__NtB8_15ChatMessageRoleNtNtCseHmADR0RVY9_5serde2de11Deserialize11deserializeNtB3_14___FieldVisitorNtB1R_7Visitor9visit_u64pEBg_
FNDA:0,_RINvXNvXNvNtNtNtNtCsfsPcvtvSBg5_13rag_toolchain7clients7open_ai5model16chat_completionss3_1__NtB8_15ChatMessageRoleNtNtCseHmADR0RVY9_5serde2de11Deserialize11deserializeNtB3_14___FieldVisitorNtB1R_7Visitor11visit_bytespEBg_
FNDA:0,_RNvXs0_NvXNvNtNtNtNtCsfsPcvtvSBg5_13rag_toolchain7clients7open_ai5model16chat_completionss3_1__NtBa_15ChatMessageRoleNtNtCseHmADR0RVY9_5serde2de11Deserialize11deserializeNtB5_9___VisitorNtB1T_7Visitor9expecting
FNDA:0,_RNvXNvXNvNtNtNtNtCsfsPcvtvSBg5_13rag_toolchain7clients7open_ai5model16chat_completionss5_1__NtB7_11OpenAIModelNtNtCseHmADR0RVY9_5serde2de11Deserialize11deserializeNtB2_14___FieldVisitorNtB1M_7Visitor9expecting
FNDA:0,_RINvXNvXNvNtNtNtNtCsfsPcvtvSBg5_13rag_toolchain7clients7open_ai5model16chat_completionss5_1__NtB8_11OpenAIModelNtNtCseHmADR0RVY9_5serde2de11Deserialize11deserializeNtB3_14___FieldVisitorNtB1N_7Visitor9visit_u64pEBg_
FNDA:0,_RINvXNvXNvNtNtNtNtCsfsPcvtvSBg5_13rag_toolchain7clients7open_ai5model16chat_completionss5_1__NtB8_11OpenAIModelNtNtCseHmADR0RVY9_5serde2de11Deserialize11deserializeNtB3_14___FieldVisitorNtB1N_7Visitor9visit_strpEBg_
FNDA:0,_RINvXNvXNvNtNtNtNtCsfsPcvtvSBg5_13rag_toolchain7clients7open_ai5model16chat_completionss5_1__NtB8_11OpenAIModelNtNtCseHmADR0RVY9_5serde2de11Deserialize11deserializeNtB3_14___FieldVisitorNtB1N_7Visitor11visit_bytespEBg_
FNDA:0,_RINvXs_NvXNvNtNtNtNtCsfsPcvtvSBg5_13rag_toolchain7clients7open_ai5model16chat_completionss5_1__NtBa_11OpenAIModelNtNtCseHmADR0RVY9_5serde2de11Deserialize11deserializeNtB5_7___FieldB1N_11deserializepEBi_
FNDA:0,_RNvXs0_NvXNvNtNtNtNtCsfsPcvtvSBg5_13rag_toolchain7clients7open_ai5model16chat_completionss5_1__NtBa_11OpenAIModelNtNtCseHmADR0RVY9_5serde2de11Deserialize11deserializeNtB5_9___VisitorNtB1P_7Visitor9expecting
FNDA:0,_RINvXs0_NvXNvNtNtNtNtCsfsPcvtvSBg5_13rag_toolchain7clients7open_ai5model16chat_completionss5_1__NtBb_11OpenAIModelNtNtCseHmADR0RVY9_5serde2de11Deserialize11deserializeNtB6_9___VisitorNtB1Q_7Visitor10visit_enumpEBj_
FNDA:0,_RNvXNvXNvNtNtNtNtCsfsPcvtvSBg5_13rag_toolchain7clients7open_ai5model16chat_completionss7_1__NtB7_11ChatMessageNtNtCseHmADR0RVY9_5serde2de11Deserialize11deserializeNtB2_14___FieldVisitorNtB1M_7Visitor9expecting
FNDA:0,_RINvXNvXNvNtNtNtNtCsfsPcvtvSBg5_13rag_toolchain7clients7open_ai5model16chat_completionss7_1__NtB8_11ChatMessageNtNtCseHmADR0RVY9_5serde2de11Deserialize11deserializeNtB3_14___FieldVisitorNtB1N_7Visitor9visit_u64pEBg_
FNDA:0,_RINvXNvXNvNtNtNtNtCsfsPcvtvSBg5_13rag_toolchain7clients7open_ai5model16chat_completionss7_1__NtB8_11ChatMessageNtNtCseHmADR0RVY9_5serde2de11Deserialize11deserializeNtB3_14___FieldVisitorNtB1N_7Visitor11visit_bytespEBg_
FNDA:0,_RNvXNvXNvNtNtNtNtCsfsPcvtvSBg5_13rag_toolchain7clients7open_ai5model16chat_completionss9_1__NtB7_5UsageNtNtCseHmADR0RVY9_5serde2de11Deserialize11deserializeNtB2_14___FieldVisitorNtB1F_7Visitor9expecting
FNDA:0,_RINvXNvXNvNtNtNtNtCsfsPcvtvSBg5_13rag_toolchain7clients7open_ai5model16chat_completionss9_1__NtB8_5UsageNtNtCseHmADR0RVY9_5serde2de11Deserialize11deserializeNtB3_14___FieldVisitorNtB1G_7Visitor9visit_u64pEBg_
FNDA:0,_RINvXNvXNvNtNtNtNtCsfsPcvtvSBg5_13rag_toolchain7clients7open_ai5model16chat_completionss9_1__NtB8_5UsageNtNtCseHmADR0RVY9_5serde2de11Deserialize11deserializeNtB3_14___FieldVisitorNtB1G_7Visitor11visit_bytespEBg_
FNDA:0,_RNvXNvXNvNtNtNtNtCsfsPcvtvSBg5_13rag_toolchain7clients7open_ai5model16chat_completionssb_1__NtB7_21ChatCompletionChoicesNtNtCseHmADR0RVY9_5serde2de11Deserialize11deserializeNtB2_14___FieldVisitorNtB1W_7Visitor9expecting
FNDA:0,_RINvXNvXNvNtNtNtNtCsfsPcvtvSBg5_13rag_toolchain7clients7open_ai5model16chat_completionssb_1__NtB8_21ChatCompletionChoicesNtNtCseHmADR0RVY9_5serde2de11Deserialize11deserializeNtB3_14___FieldVisitorNtB1X_7Visitor9visit_u64pEBg_
FNDA:0,_RINvXNvXNvNtNtNtNtCsfsPcvtvSBg5_13rag_toolchain7clients7open_ai5model16chat_completionssb_1__NtB8_21ChatCompletionChoicesNtNtCseHmADR0RVY9_5serde2de11Deserialize11deserializeNtB3_14___FieldVisitorNtB1X_7Visitor11visit_bytespEBg_
FNDA:0,_RNvXNvXNvNtNtNtNtCsfsPcvtvSBg5_13rag_toolchain7clients7open_ai5model16chat_completionssd_1__NtB7_30ChatCompletionStreamedResponseNtNtCseHmADR0RVY9_5serde2de11Deserialize11deserializeNtB2_14___FieldVisitorNtB25_7Visitor9expecting
FNDA:0,_RINvXNvXNvNtNtNtNtCsfsPcvtvSBg5_13rag_toolchain7clients7open_ai5model16chat_completionssd_1__NtB8_30ChatCompletionStreamedResponseNtNtCseHmADR0RVY9_5serde2de11Deserialize11deserializeNtB3_14___FieldVisitorNtB26_7Visitor9visit_u64pEBg_
FNDA:0,_RINvXNvXNvNtNtNtNtCsfsPcvtvSBg5_13rag_toolchain7clients7open_ai5model16chat_completionssd_1__NtB8_30ChatCompletionStreamedResponseNtNtCseHmADR0RVY9_5serde2de11Deserialize11deserializeNtB3_14___FieldVisitorNtB26_7Visitor11visit_bytespEBg_
FNDA:0,_RNvXNvXNvNtNtNtNtCsfsPcvtvSBg5_13rag_toolchain7clients7open_ai5model16chat_completionssf_1__NtB7_29ChatCompletionStreamedChoicesNtNtCseHmADR0RVY9_5serde2de11Deserialize11deserializeNtB2_14___FieldVisitorNtB24_7Visitor9expecting
FNDA:0,_RINvXNvXNvNtNtNtNtCsfsPcvtvSBg5_13rag_toolchain7clients7open_ai5model16chat_completionssf_1__NtB8_29ChatCompletionStreamedChoicesNtNtCseHmADR0RVY9_5serde2de11Deserialize11deserializeNtB3_14___FieldVisitorNtB25_7Visitor9visit_u64pEBg_
FNDA:0,_RINvXNvXNvNtNtNtNtCsfsPcvtvSBg5_13rag_toolchain7clients7open_ai5model16chat_completionssf_1__NtB8_29ChatCompletionStreamedChoicesNtNtCseHmADR0RVY9_5serde2de11Deserialize11deserializeNtB3_14___FieldVisitorNtB25_7Visitor11visit_bytespEBg_
FNDA:0,_RNvXNvXNvNtNtNtNtCsfsPcvtvSBg5_13rag_toolchain7clients7open_ai5model16chat_completionssh_1__NtB7_19ChatCompletionDeltaNtNtCseHmADR0RVY9_5serde2de11Deserialize11deserializeNtB2_14___FieldVisitorNtB1U_7Visitor9expecting
FNDA:0,_RINvXNvXNvNtNtNtNtCsfsPcvtvSBg5_13rag_toolchain7clients7open_ai5model16chat_completionssh_1__NtB8_19ChatCompletionDeltaNtNtCseHmADR0RVY9_5serde2de11Deserialize11deserializeNtB3_14___FieldVisitorNtB1V_7Visitor9visit_u64pEBg_
FNDA:0,_RINvXNvXNvNtNtNtNtCsfsPcvtvSBg5_13rag_toolchain7clients7open_ai5model16chat_completionssh_1__NtB8_19ChatCompletionDeltaNtNtCseHmADR0RVY9_5serde2de11Deserialize11deserializeNtB3_14___FieldVisitorNtB1V_7Visitor11visit_bytespEBg_
FNDA:1,_RNvNtNtNtNtNtCsfsPcvtvSBg5_13rag_toolchain7clients7open_ai5model16chat_completions19request_model_testss_39test_chat_completion_request_serializes
FNDA:1,_RNvNtNtNtNtNtCsfsPcvtvSBg5_13rag_toolchain7clients7open_ai5model16chat_completions19request_model_testss_43test_chat_completions_response_deserializes
FNDA:1,_RNvNtNtNtNtNtCsfsPcvtvSBg5_13rag_toolchain7clients7open_ai5model16chat_completions19request_model_testss_53test_chat_completions_streaming_response_deserializes
FNDA:2,_RNvXNtNtNtNtCsfsPcvtvSBg5_13rag_toolchain7clients7open_ai5model16chat_completionsNtB2_11ChatMessageINtNtCsaYZPK01V26L_4core7convert4FromNtNtB8_5types13PromptMessageE4from
FNDA:0,_RNvXs0_NvXNvNtNtNtNtCsfsPcvtvSBg5_13rag_toolchain7clients7open_ai5model16chat_completionss1_1__NtBa_22ChatCompletionResponseNtNtCseHmADR0RVY9_5serde2de11Deserialize11deserializeNtB5_9___VisitorNtB20_7Visitor9expecting
FNDA:0,_RNvXNvXNvNtNtNtNtCsfsPcvtvSBg5_13rag_toolchain7clients7open_ai5model16chat_completionss3_1__NtB7_15ChatMessageRoleNtNtCseHmADR0RVY9_5serde2de11Deserialize11deserializeNtB2_14___FieldVisitorNtB1Q_7Visitor9expecting
FNDA:0,_RNvXs0_NvXNvNtNtNtNtCsfsPcvtvSBg5_13rag_toolchain7clients7open_ai5model16chat_completionss7_1__NtBa_11ChatMessageNtNtCseHmADR0RVY9_5serde2de11Deserialize11deserializeNtB5_9___VisitorNtB1P_7Visitor9expecting
FNDA:0,_RNvXs0_NvXNvNtNtNtNtCsfsPcvtvSBg5_13rag_toolchain7clients7open_ai5model16chat_completionss9_1__NtBa_5UsageNtNtCseHmADR0RVY9_5serde2de11Deserialize11deserializeNtB5_9___VisitorNtB1I_7Visitor9expecting
FNDA:0,_RNvXs0_NvXNvNtNtNtNtCsfsPcvtvSBg5_13rag_toolchain7clients7open_ai5model16chat_completionssb_1__NtBa_21ChatCompletionChoicesNtNtCseHmADR0RVY9_5serde2de11Deserialize11deserializeNtB5_9___VisitorNtB1Z_7Visitor9expecting
FNDA:0,_RNvXs0_NvXNvNtNtNtNtCsfsPcvtvSBg5_13rag_toolchain7clients7open_ai5model16chat_completionssd_1__NtBa_30ChatCompletionStreamedResponseNtNtCseHmADR0RVY9_5serde2de11Deserialize11deserializeNtB5_9___VisitorNtB28_7Visitor9expecting
FNDA:0,_RNvXs0_NvXNvNtNtNtNtCsfsPcvtvSBg5_13rag_toolchain7clients7open_ai5model16chat_completionssf_1__NtBa_29ChatCompletionStreamedChoicesNtNtCseHmADR0RVY9_5serde2de11Deserialize11deserializeNtB5_9___VisitorNtB27_7Visitor9expecting
FNDA:0,_RNvXs0_NvXNvNtNtNtNtCsfsPcvtvSBg5_13rag_toolchain7clients7open_ai5model16chat_completionssh_1__NtBa_19ChatCompletionDeltaNtNtCseHmADR0RVY9_5serde2de11Deserialize11deserializeNtB5_9___VisitorNtB1X_7Visitor9expecting
FNDA:1,_RNvXs_NtNtNtNtCsfsPcvtvSBg5_13rag_toolchain7clients7open_ai5model16chat_completionsNtNtBa_5types13PromptMessageINtNtCsaYZPK01V26L_4core7convert4FromNtB4_11ChatMessageE4from
FNF:16
FNH:13
DA:8,0
DA:14,0
DA:19,30
DA:31,6
DA:39,0
DA:48,10
DA:55,2
DA:56,2
DA:57,0
DA:58,0
DA:59,0
DA:60,0
DA:61,2
DA:62,2
DA:63,2
DA:64,2
DA:65,0
DA:66,0
DA:67,0
DA:68,0
DA:70,2
DA:74,1
DA:75,1
DA:76,1
DA:77,0
DA:78,0
DA:80,1
DA:83,14
DA:90,18
DA:99,13
DA:109,9
DA:119,5
DA:152,1
DA:153,1
DA:154,1
DA:155,1
DA:156,1
DA:157,1
DA:158,1
DA:159,1
DA:160,1
DA:161,1
DA:162,1
DA:163,1
DA:164,1
DA:165,1
DA:166,1
DA:167,1
DA:168,1
DA:169,1
DA:170,1
DA:171,1
DA:172,1
DA:173,1
DA:174,1
DA:175,1
DA:176,1
DA:177,1
DA:178,1
DA:181,1
DA:182,1
DA:183,1
DA:184,1
DA:185,1
DA:186,1
DA:187,1
DA:188,1
DA:189,1
DA:190,1
DA:191,1
DA:192,1
DA:193,1
DA:194,1
DA:195,1
DA:196,1
DA:197,1
DA:198,1
DA:199,1
DA:200,1
DA:201,1
DA:202,1
DA:203,1
DA:204,1
DA:205,1
DA:206,1
DA:207,1
DA:210,1
DA:211,1
DA:212,1
DA:213,1
DA:214,1
DA:215,1
DA:216,1
DA:217,1
DA:218,1
DA:219,1
DA:220,1
DA:221,1
DA:222,1
DA:223,1
DA:224,1
DA:225,1
DA:226,1
DA:227,1
DA:228,1
DA:229,1
DA:230,1
DA:231,1
BRF:0
BRH:0
LF:108
LH:95
end_of_record
SF:/root/project/rust-rag-toolchain/rag-toolchain/src/clients/open_ai/model/embeddings.rs
FN:6,_RINvXNvXNvNtNtNtNtCsfsPcvtvSBg5_13rag_toolchain7clients7open_ai5model10embeddingss_1__NtB8_21BatchEmbeddingRequestNtNtCseHmADR0RVY9_5serde2de11Deserialize11deserializeNtB3_14___FieldVisitorNtB1Q_7Visitor9visit_strNtNtCse05LGF5xr5W_10serde_json5error5ErrorEBg_
FN:6,_RINvXs_NvXNvNtNtNtNtCsfsPcvtvSBg5_13rag_toolchain7clients7open_ai5model10embeddingss_1__NtBa_21BatchEmbeddingRequestNtNtCseHmADR0RVY9_5serde2de11Deserialize11deserializeNtB5_7___FieldB1Q_11deserializeINtNtCse05LGF5xr5W_10serde_json2de6MapKeyNtNtB3h_4read7StrReadEEBi_
FN:6,_RINvXs0_NvXNvNtNtNtNtCsfsPcvtvSBg5_13rag_toolchain7clients7open_ai5model10embeddingss_1__NtBb_21BatchEmbeddingRequestNtNtCseHmADR0RVY9_5serde2de11Deserialize11deserializeNtB6_9___VisitorNtB1T_7Visitor9visit_seqINtNtCse05LGF5xr5W_10serde_json2de9SeqAccessNtNtB3r_4read7StrReadEEBj_
FN:6,_RINvXs0_NvXNvNtNtNtNtCsfsPcvtvSBg5_13rag_toolchain7clients7open_ai5model10embeddingss_1__NtBb_21BatchEmbeddingRequestNtNtCseHmADR0RVY9_5serde2de11Deserialize11deserializeNtB6_9___VisitorNtB1T_7Visitor9visit_mapINtNtCse05LGF5xr5W_10serde_json2de9MapAccessNtNtB3r_4read7StrReadEEBj_
FN:12,_RNCNvMse_NtNtNtNtCsfsPcvtvSBg5_13rag_toolchain7clients7open_ai5model10embeddingsINtB7_28BatchEmbeddingRequestBuilderTTINtNtCsdZExvAaxgia_5alloc3vec3VecNtNtB1X_6string6StringEETNtNtNtBf_6common16embedding_shared20OpenAIEmbeddingModelEuuEE5build0Bf_
FN:15,_RNCNvMse_NtNtNtNtCsfsPcvtvSBg5_13rag_toolchain7clients7open_ai5model10embeddingsINtB7_28BatchEmbeddingRequestBuilderTTINtNtCsdZExvAaxgia_5alloc3vec3VecNtNtB1X_6string6StringEETNtNtNtBf_6common16embedding_shared20OpenAIEmbeddingModelEuuEE5builds_0Bf_
FN:19,_RINvXNvXNvNtNtNtNtCsfsPcvtvSBg5_13rag_toolchain7clients7open_ai5model10embeddingss1_1__NtB8_16EmbeddingRequestNtNtCseHmADR0RVY9_5serde2de11Deserialize11deserializeNtB3_14___FieldVisitorNtB1M_7Visitor9visit_strNtNtCse05LGF5xr5W_10serde_json5error5ErrorEBg_
FN:19,_RINvXs_NvXNvNtNtNtNtCsfsPcvtvSBg5_13rag_toolchain7clients7open_ai5model10embeddingss1_1__NtBa_16EmbeddingRequestNtNtCseHmADR0RVY9_5serde2de11Deserialize11deserializeNtB5_7___FieldB1M_11deserializeINtNtCse05LGF5xr5W_10serde_json2de6MapKeyNtNtB3d_4read7StrReadEEBi_
FN:19,_RINvXs0_NvXNvNtNtNtNtCsfsPcvtvSBg5_13rag_toolchain7clients7open_ai5model10embeddingss1_1__NtBb_16EmbeddingRequestNtNtCseHmADR0RVY9_5serde2de11Deserialize11deserializeNtB6_9___VisitorNtB1P_7Visitor9visit_seqINtNtCse05LGF5xr5W_10serde_json2de9SeqAccessNtNtB3n_4read7StrReadEEBj_
FN:19,_RINvXs0_NvXNvNtNtNtNtCsfsPcvtvSBg5_13rag_toolchain7clients7open_ai5model10embeddingss1_1__NtBb_16EmbeddingRequestNtNtCseHmADR0RVY9_5serde2de11Deserialize11deserializeNtB6_9___VisitorNtB1P_7Visitor9visit_mapINtNtCse05LGF5xr5W_10serde_json2de9MapAccessNtNtB3n_4read7StrReadEEBj_
FN:25,_RNCNvMsv_NtNtNtNtCsfsPcvtvSBg5_13rag_toolchain7clients7open_ai5model10embeddingsINtB7_23EmbeddingRequestBuilderTTNtNtCsdZExvAaxgia_5alloc6string6StringETNtNtNtBf_6common16embedding_shared20OpenAIEmbeddingModelEuuEE5build0Bf_
FN:28,_RNCNvMsv_NtNtNtNtCsfsPcvtvSBg5_13rag_toolchain7clients7open_ai5model10embeddingsINtB7_23EmbeddingRequestBuilderTTNtNtCsdZExvAaxgia_5alloc6string6StringETNtNtNtBf_6common16embedding_shared20OpenAIEmbeddingModelEuuEE5builds_0Bf_
FN:32,_RINvXNvXNvNtNtNtNtCsfsPcvtvSBg5_13rag_toolchain7clients7open_ai5model10embeddingss2_1__NtB8_17EmbeddingResponseNtNtCseHmADR0RVY9_5serde2de11Deserialize11deserializeNtB3_14___FieldVisitorNtB1N_7Visitor9visit_strNtNtCse05LGF5xr5W_10serde_json5error5ErrorEBg_
FN:32,_RINvXs_NvXNvNtNtNtNtCsfsPcvtvSBg5_13rag_toolchain7clients7open_ai5model10embeddingss2_1__NtBa_17EmbeddingResponseNtNtCseHmADR0RVY9_5serde2de11Deserialize11deserializeNtB5_7___FieldB1N_11deserializeINtNtCse05LGF5xr5W_10serde_json2de6MapKeyNtNtB3e_4read7StrReadEEBi_
FN:32,_RINvXs0_NvXNvNtNtNtNtCsfsPcvtvSBg5_13rag_toolchain7clients7open_ai5model10embeddingss2_1__NtBb_17EmbeddingResponseNtNtCseHmADR0RVY9_5serde2de11Deserialize11deserializeNtB6_9___VisitorNtB1Q_7Visitor9visit_seqINtNtCse05LGF5xr5W_10serde_json2de9SeqAccessNtNtB3o_4read7StrReadEEBj_
FN:32,_RINvXs0_NvXNvNtNtNtNtCsfsPcvtvSBg5_13rag_toolchain7clients7open_ai5model10embeddingss2_1__NtBb_17EmbeddingResponseNtNtCseHmADR0RVY9_5serde2de11Deserialize11deserializeNtB6_9___VisitorNtB1Q_7Visitor9visit_mapINtNtCse05LGF5xr5W_10serde_json2de9MapAccessNtNtB3o_4read7StrReadEEBj_
FN:41,_RINvXNvXNvNtNtNtNtCsfsPcvtvSBg5_13rag_toolchain7clients7open_ai5model10embeddingss3_1__NtB8_15EmbeddingObjectNtNtCseHmADR0RVY9_5serde2de11Deserialize11deserializeNtB3_14___FieldVisitorNtB1L_7Visitor9visit_strNtNtCse05LGF5xr5W_10serde_json5error5ErrorEBg_
FN:41,_RINvXs_NvXNvNtNtNtNtCsfsPcvtvSBg5_13rag_toolchain7clients7open_ai5model10embeddingss3_1__NtBa_15EmbeddingObjectNtNtCseHmADR0RVY9_5serde2de11Deserialize11deserializeNtB5_7___FieldB1L_11deserializeINtNtCse05LGF5xr5W_10serde_json2de6MapKeyNtNtB3c_4read7StrReadEEBi_
FN:41,_RINvXs0_NvXNvNtNtNtNtCsfsPcvtvSBg5_13rag_toolchain7clients7open_ai5model10embeddingss3_1__NtBb_15EmbeddingObjectNtNtCseHmADR0RVY9_5serde2de11Deserialize11deserializeNtB6_9___VisitorNtB1O_7Visitor9visit_seqINtNtCse05LGF5xr5W_10serde_json2de9SeqAccessNtNtB3m_4read7StrReadEEBj_
FN:41,_RINvXs0_NvXNvNtNtNtNtCsfsPcvtvSBg5_13rag_toolchain7clients7open_ai5model10embeddingss3_1__NtBb_15EmbeddingObjectNtNtCseHmADR0RVY9_5serde2de11Deserialize11deserializeNtB6_9___VisitorNtB1O_7Visitor9visit_mapINtNtCse05LGF5xr5W_10serde_json2de9MapAccessNtNtB3m_4read7StrReadEEBj_
FN:49,_RINvXNvXNvNtNtNtNtCsfsPcvtvSBg5_13rag_toolchain7clients7open_ai5model10embeddingss5_1__NtB8_5UsageNtNtCseHmADR0RVY9_5serde2de11Deserialize11deserializeNtB3_14___FieldVisitorNtB1A_7Visitor9visit_strNtNtCse05LGF5xr5W_10serde_json5error5ErrorEBg_
FN:49,_RINvXs_NvXNvNtNtNtNtCsfsPcvtvSBg5_13rag_toolchain7clients7open_ai5model10embeddingss5_1__NtBa_5UsageNtNtCseHmADR0RVY9_5serde2de11Deserialize11deserializeNtB5_7___FieldB1A_11deserializeINtNtCse05LGF5xr5W_10serde_json2de6MapKeyNtNtB31_4read7StrReadEEBi_
FN:49,_RINvXs0_NvXNvNtNtNtNtCsfsPcvtvSBg5_13rag_toolchain7clients7open_ai5model10embeddingss5_1__NtBb_5UsageNtNtCseHmADR0RVY9_5serde2de11Deserialize11deserializeNtB6_9___VisitorNtB1D_7Visitor9visit_seqINtNtCse05LGF5xr5W_10serde_json2de9SeqAccessNtNtB3b_4read7StrReadEEBj_
FN:49,_RINvXs0_NvXNvNtNtNtNtCsfsPcvtvSBg5_13rag_toolchain7clients7open_ai5model10embeddingss5_1__NtBb_5UsageNtNtCseHmADR0RVY9_5serde2de11Deserialize11deserializeNtB6_9___VisitorNtB1D_7Visitor9visit_mapINtNtCse05LGF5xr5W_10serde_json2de9MapAccessNtNtB3b_4read7StrReadEEBj_
FN:56,_RINvXNvXNvNtNtNtNtCsfsPcvtvSBg5_13rag_toolchain7clients7open_ai5model10embeddingss7_1__NtB8_14EncodingFormatNtNtCseHmADR0RVY9_5serde2de11Deserialize11deserializeNtB3_14___FieldVisitorNtB1K_7Visitor9visit_strNtNtCse05LGF5xr5W_10serde_json5error5ErrorEBg_
FN:56,_RINvXs_NvXNvNtNtNtNtCsfsPcvtvSBg5_13rag_toolchain7clients7open_ai5model10embeddingss7_1__NtBa_14EncodingFormatNtNtCseHmADR0RVY9_5serde2de11Deserialize11deserializeNtB5_7___FieldB1K_11deserializeQINtNtCse05LGF5xr5W_10serde_json2de12DeserializerNtNtB3c_4read7StrReadEEBi_
FN:56,_RINvXs0_NvXNvNtNtNtNtCsfsPcvtvSBg5_13rag_toolchain7clients7open_ai5model10embeddingss7_1__NtBb_14EncodingFormatNtNtCseHmADR0RVY9_5serde2de11Deserialize11deserializeNtB6_9___VisitorNtB1N_7Visitor10visit_enumINtNtCse05LGF5xr5W_10serde_json2de13VariantAccessNtNtB3n_4read7StrReadEEBj_
FN:56,_RINvXs0_NvXNvNtNtNtNtCsfsPcvtvSBg5_13rag_toolchain7clients7open_ai5model10embeddingss7_1__NtBb_14EncodingFormatNtNtCseHmADR0RVY9_5serde2de11Deserialize11deserializeNtB6_9___VisitorNtB1N_7Visitor10visit_enumINtNtCse05LGF5xr5W_10serde_json2de17UnitVariantAccessNtNtB3n_4read7StrReadEEBj_
FN:74,_RNvNtNtNtNtNtCsfsPcvtvSBg5_13rag_toolchain7clients7open_ai5model10embeddings19request_model_testss_59test_embedding_request_without_optional_fields_deserializes
FN:88,_RNvNtNtNtNtNtCsfsPcvtvSBg5_13rag_toolchain7clients7open_ai5model10embeddings19request_model_testss_57test_embedding_request_without_optional_fields_serializes
FN:99,_RNvNtNtNtNtNtCsfsPcvtvSBg5_13rag_toolchain7clients7open_ai5model10embeddings19request_model_testss_56test_embedding_request_with_optional_fields_deserializes
FN:118,_RNvNtNtNtNtNtCsfsPcvtvSBg5_13rag_toolchain7clients7open_ai5model10embeddings19request_model_testss_54test_embedding_request_with_optional_fields_serializes
FN:134,_RNvNtNtNtNtNtCsfsPcvtvSBg5_13rag_toolchain7clients7open_ai5model10embeddings19request_model_testss_41test_batch_embedding_request_deserializes
FN:150,_RNvNtNtNtNtNtCsfsPcvtvSBg5_13rag_toolchain7clients7open_ai5model10embeddings19request_model_testss_39test_batch_embedding_request_serializes
FN:167,_RNvNtNtNtNtNtCsfsPcvtvSBg5_13rag_toolchain7clients7open_ai5model10embeddings19request_model_testss_36test_embedding_response_deserializes
FN:6,_RNvXNvXNvNtNtNtNtCsfsPcvtvSBg5_13rag_toolchain7clients7open_ai5model10embeddingss_1__NtB7_21BatchEmbeddingRequestNtNtCseHmADR0RVY9_5serde2de11Deserialize11deserializeNtB2_14___FieldVisitorNtB1P_7Visitor9expecting
FN:6,_RINvXNvXNvNtNtNtNtCsfsPcvtvSBg5_13rag_toolchain7clients7open_ai5model10embeddingss_1__NtB8_21BatchEmbeddingRequestNtNtCseHmADR0RVY9_5serde2de11Deserialize11deserializeNtB3_14___FieldVisitorNtB1Q_7Visitor9visit_u64pEBg_
FN:6,_RINvXNvXNvNtNtNtNtCsfsPcvtvSBg5_13rag_toolchain7clients7open_ai5model10embeddingss_1__NtB8_21BatchEmbeddingRequestNtNtCseHmADR0RVY9_5serde2de11Deserialize11deserializeNtB3_14___FieldVisitorNtB1Q_7Visitor11visit_bytespEBg_
FN:19,_RNvXNvXNvNtNtNtNtCsfsPcvtvSBg5_13rag_toolchain7clients7open_ai5model10embeddingss1_1__NtB7_16EmbeddingRequestNtNtCseHmADR0RVY9_5serde2de11Deserialize11deserializeNtB2_14___FieldVisitorNtB1L_7Visitor9expecting
FN:19,_RINvXNvXNvNtNtNtNtCsfsPcvtvSBg5_13rag_toolchain7clients7open_ai5model10embeddingss1_1__NtB8_16EmbeddingRequestNtNtCseHmADR0RVY9_5serde2de11Deserialize11deserializeNtB3_14___FieldVisitorNtB1M_7Visitor9visit_u64pEBg_
FN:19,_RINvXNvXNvNtNtNtNtCsfsPcvtvSBg5_13rag_toolchain7clients7open_ai5model10embeddingss1_1__NtB8_16EmbeddingRequestNtNtCseHmADR0RVY9_5serde2de11Deserialize11deserializeNtB3_14___FieldVisitorNtB1M_7Visitor11visit_bytespEBg_
FN:32,_RNvXNvXNvNtNtNtNtCsfsPcvtvSBg5_13rag_toolchain7clients7open_ai5model10embeddingss2_1__NtB7_17EmbeddingResponseNtNtCseHmADR0RVY9_5serde2de11Deserialize11deserializeNtB2_14___FieldVisitorNtB1M_7Visitor9expecting
FN:32,_RINvXNvXNvNtNtNtNtCsfsPcvtvSBg5_13rag_toolchain7clients7open_ai5model10embeddingss2_1__NtB8_17EmbeddingResponseNtNtCseHmADR0RVY9_5serde2de11Deserialize11deserializeNtB3_14___FieldVisitorNtB1N_7Visitor9visit_u64pEBg_
FN:32,_RINvXNvXNvNtNtNtNtCsfsPcvtvSBg5_13rag_toolchain7clients7open_ai5model10embeddingss2_1__NtB8_17EmbeddingResponseNtNtCseHmADR0RVY9_5serde2de11Deserialize11deserializeNtB3_14___FieldVisitorNtB1N_7Visitor11visit_bytespEBg_
FN:41,_RNvXNvXNvNtNtNtNtCsfsPcvtvSBg5_13rag_toolchain7clients7open_ai5model10embeddingss3_1__NtB7_15EmbeddingObjectNtNtCseHmADR0RVY9_5serde2de11Deserialize11deserializeNtB2_14___FieldVisitorNtB1K_7Visitor9expecting
FN:41,_RINvXNvXNvNtNtNtNtCsfsPcvtvSBg5_13rag_toolchain7clients7open_ai5model10embeddingss3_1__NtB8_15EmbeddingObjectNtNtCseHmADR0RVY9_5serde2de11Deserialize11deserializeNtB3_14___FieldVisitorNtB1L_7Visitor9visit_u64pEBg_
FN:41,_RINvXNvXNvNtNtNtNtCsfsPcvtvSBg5_13rag_toolchain7clients7open_ai5model10embeddingss3_1__NtB8_15EmbeddingObjectNtNtCseHmADR0RVY9_5serde2de11Deserialize11deserializeNtB3_14___FieldVisitorNtB1L_7Visitor11visit_bytespEBg_
FN:49,_RNvXNvXNvNtNtNtNtCsfsPcvtvSBg5_13rag_toolchain7clients7open_ai5model10embeddingss5_1__NtB7_5UsageNtNtCseHmADR0RVY9_5serde2de11Deserialize11deserializeNtB2_14___FieldVisitorNtB1z_7Visitor9expecting
FN:49,_RINvXNvXNvNtNtNtNtCsfsPcvtvSBg5_13rag_toolchain7clients7open_ai5model10embeddingss5_1__NtB8_5UsageNtNtCseHmADR0RVY9_5serde2de11Deserialize11deserializeNtB3_14___FieldVisitorNtB1A_7Visitor9visit_u64pEBg_
FN:49,_RINvXNvXNvNtNtNtNtCsfsPcvtvSBg5_13rag_toolchain7clients7open_ai5model10embeddingss5_1__NtB8_5UsageNtNtCseHmADR0RVY9_5serde2de11Deserialize11deserializeNtB3_14___FieldVisitorNtB1A_7Visitor11visit_bytespEBg_
FN:56,_RINvXNvXNvNtNtNtNtCsfsPcvtvSBg5_13rag_toolchain7clients7open_ai5model10embeddingss7_1__NtB8_14EncodingFormatNtNtCseHmADR0RVY9_5serde2de11Deserialize11deserializeNtB3_14___FieldVisitorNtB1K_7Visitor9visit_u64pEBg_
FN:56,_RINvXNvXNvNtNtNtNtCsfsPcvtvSBg5_13rag_toolchain7clients7open_ai5model10embeddingss7_1__NtB8_14EncodingFormatNtNtCseHmADR0RVY9_5serde2de11Deserialize11deserializeNtB3_14___FieldVisitorNtB1K_7Visitor11visit_bytespEBg_
FN:56,_RNvXs0_NvXNvNtNtNtNtCsfsPcvtvSBg5_13rag_toolchain7clients7open_ai5model10embeddingss7_1__NtBa_14EncodingFormatNtNtCseHmADR0RVY9_5serde2de11Deserialize11deserializeNtB5_9___VisitorNtB1M_7Visitor9expecting
FN:6,_RNvXs0_NvXNvNtNtNtNtCsfsPcvtvSBg5_13rag_toolchain7clients7open_ai5model10embeddingss_1__NtBa_21BatchEmbeddingRequestNtNtCseHmADR0RVY9_5serde2de11Deserialize11deserializeNtB5_9___VisitorNtB1S_7Visitor9expecting
FN:19,_RNvXs0_NvXNvNtNtNtNtCsfsPcvtvSBg5_13rag_toolchain7clients7open_ai5model10embeddingss1_1__NtBa_16EmbeddingRequestNtNtCseHmADR0RVY9_5serde2de11Deserialize11deserializeNtB5_9___VisitorNtB1O_7Visitor9expecting
FN:32,_RNvXs0_NvXNvNtNtNtNtCsfsPcvtvSBg5_13rag_toolchain7clients7open_ai5model10embeddingss2_1__NtBa_17EmbeddingResponseNtNtCseHmADR0RVY9_5serde2de11Deserialize11deserializeNtB5_9___VisitorNtB1P_7Visitor9expecting
FN:41,_RNvXs0_NvXNvNtNtNtNtCsfsPcvtvSBg5_13rag_toolchain7clients7open_ai5model10embeddingss3_1__NtBa_15EmbeddingObjectNtNtCseHmADR0RVY9_5serde2de11Deserialize11deserializeNtB5_9___VisitorNtB1N_7Visitor9expecting
FN:49,_RNvXs0_NvXNvNtNtNtNtCsfsPcvtvSBg5_13rag_toolchain7clients7open_ai5model10embeddingss5_1__NtBa_5UsageNtNtCseHmADR0RVY9_5serde2de11Deserialize11deserializeNtB5_9___VisitorNtB1C_7Visitor9expecting
FN:56,_RNvXNvXNvNtNtNtNtCsfsPcvtvSBg5_13rag_toolchain7clients7open_ai5model10embeddingss7_1__NtB7_14EncodingFormatNtNtCseHmADR0RVY9_5serde2de11Deserialize11deserializeNtB2_14___FieldVisitorNtB1J_7Visitor9expecting
FNDA:2,_RINvXNvXNvNtNtNtNtCsfsPcvtvSBg5_13rag_toolchain7clients7open_ai5model10embeddingss_1__NtB8_21BatchEmbeddingRequestNtNtCseHmADR0RVY9_5serde2de11Deserialize11deserializeNtB3_14___FieldVisitorNtB1Q_7Visitor9visit_strNtNtCse05LGF5xr5W_10serde_json5error5ErrorEBg_
FNDA:2,_RINvXs_NvXNvNtNtNtNtCsfsPcvtvSBg5_13rag_toolchain7clients7open_ai5model10embeddingss_1__NtBa_21BatchEmbeddingRequestNtNtCseHmADR0RVY9_5serde2de11Deserialize11deserializeNtB5_7___FieldB1Q_11deserializeINtNtCse05LGF5xr5W_10serde_json2de6MapKeyNtNtB3h_4read7StrReadEEBi_
FNDA:0,_RINvXs0_NvXNvNtNtNtNtCsfsPcvtvSBg5_13rag_toolchain7clients7open_ai5model10embeddingss_1__NtBb_21BatchEmbeddingRequestNtNtCseHmADR0RVY9_5serde2de11Deserialize11deserializeNtB6_9___VisitorNtB1T_7Visitor9visit_seqINtNtCse05LGF5xr5W_10serde_json2de9SeqAccessNtNtB3r_4read7StrReadEEBj_
FNDA:1,_RINvXs0_NvXNvNtNtNtNtCsfsPcvtvSBg5_13rag_toolchain7clients7open_ai5model10embeddingss_1__NtBb_21BatchEmbeddingRequestNtNtCseHmADR0RVY9_5serde2de11Deserialize11deserializeNtB6_9___VisitorNtB1T_7Visitor9visit_mapINtNtCse05LGF5xr5W_10serde_json2de9MapAccessNtNtB3r_4read7StrReadEEBj_
FNDA:3,_RNCNvMse_NtNtNtNtCsfsPcvtvSBg5_13rag_toolchain7clients7open_ai5model10embeddingsINtB7_28BatchEmbeddingRequestBuilderTTINtNtCsdZExvAaxgia_5alloc3vec3VecNtNtB1X_6string6StringEETNtNtNtBf_6common16embedding_shared20OpenAIEmbeddingModelEuuEE5build0Bf_
FNDA:3,_RNCNvMse_NtNtNtNtCsfsPcvtvSBg5_13rag_toolchain7clients7open_ai5model10embeddingsINtB7_28BatchEmbeddingRequestBuilderTTINtNtCsdZExvAaxgia_5alloc3vec3VecNtNtB1X_6string6StringEETNtNtNtBf_6common16embedding_shared20OpenAIEmbeddingModelEuuEE5builds_0Bf_
FNDA:6,_RINvXNvXNvNtNtNtNtCsfsPcvtvSBg5_13rag_toolchain7clients7open_ai5model10embeddingss1_1__NtB8_16EmbeddingRequestNtNtCseHmADR0RVY9_5serde2de11Deserialize11deserializeNtB3_14___FieldVisitorNtB1M_7Visitor9visit_strNtNtCse05LGF5xr5W_10serde_json5error5ErrorEBg_
FNDA:6,_RINvXs_NvXNvNtNtNtNtCsfsPcvtvSBg5_13rag_toolchain7clients7open_ai5model10embeddingss1_1__NtBa_16EmbeddingRequestNtNtCseHmADR0RVY9_5serde2de11Deserialize11deserializeNtB5_7___FieldB1M_11deserializeINtNtCse05LGF5xr5W_10serde_json2de6MapKeyNtNtB3d_4read7StrReadEEBi_
FNDA:0,_RINvXs0_NvXNvNtNtNtNtCsfsPcvtvSBg5_13rag_toolchain7clients7open_ai5model10embeddingss1_1__NtBb_16EmbeddingRequestNtNtCseHmADR0RVY9_5serde2de11Deserialize11deserializeNtB6_9___VisitorNtB1P_7Visitor9visit_seqINtNtCse05LGF5xr5W_10serde_json2de9SeqAccessNtNtB3n_4read7StrReadEEBj_
FNDA:2,_RINvXs0_NvXNvNtNtNtNtCsfsPcvtvSBg5_13rag_toolchain7clients7open_ai5model10embeddingss1_1__NtBb_16EmbeddingRequestNtNtCseHmADR0RVY9_5serde2de11Deserialize11deserializeNtB6_9___VisitorNtB1P_7Visitor9visit_mapINtNtCse05LGF5xr5W_10serde_json2de9MapAccessNtNtB3n_4read7StrReadEEBj_
FNDA:3,_RNCNvMsv_NtNtNtNtCsfsPcvtvSBg5_13rag_toolchain7clients7open_ai5model10embeddingsINtB7_23EmbeddingRequestBuilderTTNtNtCsdZExvAaxgia_5alloc6string6StringETNtNtNtBf_6common16embedding_shared20OpenAIEmbeddingModelEuuEE5build0Bf_
FNDA:3,_RNCNvMsv_NtNtNtNtCsfsPcvtvSBg5_13rag_toolchain7clients7open_ai5model10embeddingsINtB7_23EmbeddingRequestBuilderTTNtNtCsdZExvAaxgia_5alloc6string6StringETNtNtNtBf_6common16embedding_shared20OpenAIEmbeddingModelEuuEE5builds_0Bf_
FNDA:12,_RINvXNvXNvNtNtNtNtCsfsPcvtvSBg5_13rag_toolchain7clients7open_ai5model10embeddingss2_1__NtB8_17EmbeddingResponseNtNtCseHmADR0RVY9_5serde2de11Deserialize11deserializeNtB3_14___FieldVisitorNtB1N_7Visitor9visit_strNtNtCse05LGF5xr5W_10serde_json5error5ErrorEBg_
FNDA:12,_RINvXs_NvXNvNtNtNtNtCsfsPcvtvSBg5_13rag_toolchain7clients7open_ai5model10embeddingss2_1__NtBa_17EmbeddingResponseNtNtCseHmADR0RVY9_5serde2de11Deserialize11deserializeNtB5_7___FieldB1N_11deserializeINtNtCse05LGF5xr5W_10serde_json2de6MapKeyNtNtB3e_4read7StrReadEEBi_
FNDA:0,_RINvXs0_NvXNvNtNtNtNtCsfsPcvtvSBg5_13rag_toolchain7clients7open_ai5model10embeddingss2_1__NtBb_17EmbeddingResponseNtNtCseHmADR0RVY9_5serde2de11Deserialize11deserializeNtB6_9___VisitorNtB1Q_7Visitor9visit_seqINtNtCse05LGF5xr5W_10serde_json2de9SeqAccessNtNtB3o_4read7StrReadEEBj_
FNDA:3,_RINvXs0_NvXNvNtNtNtNtCsfsPcvtvSBg5_13rag_toolchain7clients7open_ai5model10embeddingss2_1__NtBb_17EmbeddingResponseNtNtCseHmADR0RVY9_5serde2de11Deserialize11deserializeNtB6_9___VisitorNtB1Q_7Visitor9visit_mapINtNtCse05LGF5xr5W_10serde_json2de9MapAccessNtNtB3o_4read7StrReadEEBj_
FNDA:15,_RINvXNvXNvNtNtNtNtCsfsPcvtvSBg5_13rag_toolchain7clients7open_ai5model10embeddingss3_1__NtB8_15EmbeddingObjectNtNtCseHmADR0RVY9_5serde2de11Deserialize11deserializeNtB3_14___FieldVisitorNtB1L_7Visitor9visit_strNtNtCse05LGF5xr5W_10serde_json5error5ErrorEBg_
FNDA:15,_RINvXs_NvXNvNtNtNtNtCsfsPcvtvSBg5_13rag_toolchain7clients7open_ai5model10embeddingss3_1__NtBa_15EmbeddingObjectNtNtCseHmADR0RVY9_5serde2de11Deserialize11deserializeNtB5_7___FieldB1L_11deserializeINtNtCse05LGF5xr5W_10serde_json2de6MapKeyNtNtB3c_4read7StrReadEEBi_
FNDA:0,_RINvXs0_NvXNvNtNtNtNtCsfsPcvtvSBg5_13rag_toolchain7clients7open_ai5model10embeddingss3_1__NtBb_15EmbeddingObjectNtNtCseHmADR0RVY9_5serde2de11Deserialize11deserializeNtB6_9___VisitorNtB1O_7Visitor9visit_seqINtNtCse05LGF5xr5W_10serde_json2de9SeqAccessNtNtB3m_4read7StrReadEEBj_
FNDA:5,_RINvXs0_NvXNvNtNtNtNtCsfsPcvtvSBg5_13rag_toolchain7clients7open_ai5model10embeddingss3_1__NtBb_15EmbeddingObjectNtNtCseHmADR0RVY9_5serde2de11Deserialize11deserializeNtB6_9___VisitorNtB1O_7Visitor9visit_mapINtNtCse05LGF5xr5W_10serde_json2de9MapAccessNtNtB3m_4read7StrReadEEBj_
FNDA:6,_RINvXNvXNvNtNtNtNtCsfsPcvtvSBg5_13rag_toolchain7clients7open_ai5model10embeddingss5_1__NtB8_5UsageNtNtCseHmADR0RVY9_5serde2de11Deserialize11deserializeNtB3_14___FieldVisitorNtB1A_7Visitor9visit_strNtNtCse05LGF5xr5W_10serde_json5error5ErrorEBg_
FNDA:6,_RINvXs_NvXNvNtNtNtNtCsfsPcvtvSBg5_13rag_toolchain7clients7open_ai5model10embeddingss5_1__NtBa_5UsageNtNtCseHmADR0RVY9_5serde2de11Deserialize11deserializeNtB5_7___FieldB1A_11deserializeINtNtCse05LGF5xr5W_10serde_json2de6MapKeyNtNtB31_4read7StrReadEEBi_
FNDA:0,_RINvXs0_NvXNvNtNtNtNtCsfsPcvtvSBg5_13rag_toolchain7clients7open_ai5model10embeddingss5_1__NtBb_5UsageNtNtCseHmADR0RVY9_5serde2de11Deserialize11deserializeNtB6_9___VisitorNtB1D_7Visitor9visit_seqINtNtCse05LGF5xr5W_10serde_json2de9SeqAccessNtNtB3b_4read7StrReadEEBj_
FNDA:3,_RINvXs0_NvXNvNtNtNtNtCsfsPcvtvSBg5_13rag_toolchain7clients7open_ai5model10embeddingss5_1__NtBb_5UsageNtNtCseHmADR0RVY9_5serde2de11Deserialize11deserializeNtB6_9___VisitorNtB1D_7Visitor9visit_mapINtNtCse05LGF5xr5W_10serde_json2de9MapAccessNtNtB3b_4read7StrReadEEBj_
FNDA:1,_RINvXNvXNvNtNtNtNtCsfsPcvtvSBg5_13rag_toolchain7clients7open_ai5model10embeddingss7_1__NtB8_14EncodingFormatNtNtCseHmADR0RVY9_5serde2de11Deserialize11deserializeNtB3_14___FieldVisitorNtB1K_7Visitor9visit_strNtNtCse05LGF5xr5W_10serde_json5error5ErrorEBg_
FNDA:1,_RINvXs_NvXNvNtNtNtNtCsfsPcvtvSBg5_13rag_toolchain7clients7open_ai5model10embeddingss7_1__NtBa_14EncodingFormatNtNtCseHmADR0RVY9_5serde2de11Deserialize11deserializeNtB5_7___FieldB1K_11deserializeQINtNtCse05LGF5xr5W_10serde_json2de12DeserializerNtNtB3c_4read7StrReadEEBi_
FNDA:0,_RINvXs0_NvXNvNtNtNtNtCsfsPcvtvSBg5_13rag_toolchain7clients7open_ai5model10embeddingss7_1__NtBb_14EncodingFormatNtNtCseHmADR0RVY9_5serde2de11Deserialize11deserializeNtB6_9___VisitorNtB1N_7Visitor10visit_enumINtNtCse05LGF5xr5W_10serde_json2de13VariantAccessNtNtB3n_4read7StrReadEEBj_
FNDA:1,_RINvXs0_NvXNvNtNtNtNtCsfsPcvtvSBg5_13rag_toolchain7clients7open_ai5model10embeddingss7_1__NtBb_14EncodingFormatNtNtCseHmADR0RVY9_5serde2de11Deserialize11deserializeNtB6_9___VisitorNtB1N_7Visitor10visit_enumINtNtCse05LGF5xr5W_10serde_json2de17UnitVariantAccessNtNtB3n_4read7StrReadEEBj_
FNDA:1,_RNvNtNtNtNtNtCsfsPcvtvSBg5_13rag_toolchain7clients7open_ai5model10embeddings19request_model_testss_59test_embedding_request_without_optional_fields_deserializes
FNDA:1,_RNvNtNtNtNtNtCsfsPcvtvSBg5_13rag_toolchain7clients7open_ai5model10embeddings19request_model_testss_57test_embedding_request_without_optional_fields_serializes
FNDA:1,_RNvNtNtNtNtNtCsfsPcvtvSBg5_13rag_toolchain7clients7open_ai5model10embeddings19request_model_testss_56test_embedding_request_with_optional_fields_deserializes
FNDA:1,_RNvNtNtNtNtNtCsfsPcvtvSBg5_13rag_toolchain7clients7open_ai5model10embeddings19request_model_testss_54test_embedding_request_with_optional_fields_serializes
FNDA:1,_RNvNtNtNtNtNtCsfsPcvtvSBg5_13rag_toolchain7clients7open_ai5model10embeddings19request_model_testss_41test_batch_embedding_request_deserializes
FNDA:1,_RNvNtNtNtNtNtCsfsPcvtvSBg5_13rag_toolchain7clients7open_ai5model10embeddings19request_model_testss_39test_batch_embedding_request_serializes
FNDA:1,_RNvNtNtNtNtNtCsfsPcvtvSBg5_13rag_toolchain7clients7open_ai5model10embeddings19request_model_testss_36test_embedding_response_deserializes
FNDA:0,_RNvXNvXNvNtNtNtNtCsfsPcvtvSBg5_13rag_toolchain7clients7open_ai5model10embeddingss_1__NtB7_21BatchEmbeddingRequestNtNtCseHmADR0RVY9_5serde2de11Deserialize11deserializeNtB2_14___FieldVisitorNtB1P_7Visitor9expecting
FNDA:0,_RINvXNvXNvNtNtNtNtCsfsPcvtvSBg5_13rag_toolchain7clients7open_ai5model10embeddingss_1__NtB8_21BatchEmbeddingRequestNtNtCseHmADR0RVY9_5serde2de11Deserialize11deserializeNtB3_14___FieldVisitorNtB1Q_7Visitor9visit_u64pEBg_
FNDA:0,_RINvXNvXNvNtNtNtNtCsfsPcvtvSBg5_13rag_toolchain7clients7open_ai5model10embeddingss_1__NtB8_21BatchEmbeddingRequestNtNtCseHmADR0RVY9_5serde2de11Deserialize11deserializeNtB3_14___FieldVisitorNtB1Q_7Visitor11visit_bytespEBg_
FNDA:0,_RNvXNvXNvNtNtNtNtCsfsPcvtvSBg5_13rag_toolchain7clients7open_ai5model10embeddingss1_1__NtB7_16EmbeddingRequestNtNtCseHmADR0RVY9_5serde2de11Deserialize11deserializeNtB2_14___FieldVisitorNtB1L_7Visitor9expecting
FNDA:0,_RINvXNvXNvNtNtNtNtCsfsPcvtvSBg5_13rag_toolchain7clients7open_ai5model10embeddingss1_1__NtB8_16EmbeddingRequestNtNtCseHmADR0RVY9_5serde2de11Deserialize11deserializeNtB3_14___FieldVisitorNtB1M_7Visitor9visit_u64pEBg_
FNDA:0,_RINvXNvXNvNtNtNtNtCsfsPcvtvSBg5_13rag_toolchain7clients7open_ai5model10embeddingss1_1__NtB8_16EmbeddingRequestNtNtCseHmADR0RVY9_5serde2de11Deserialize11deserializeNtB3_14___FieldVisitorNtB1M_7Visitor11visit_bytespEBg_
FNDA:0,_RNvXNvXNvNtNtNtNtCsfsPcvtvSBg5_13rag_toolchain7clients7open_ai5model10embeddingss2_1__NtB7_17EmbeddingResponseNtNtCseHmADR0RVY9_5serde2de11Deserialize11deserializeNtB2_14___FieldVisitorNtB1M_7Visitor9expecting
FNDA:0,_RINvXNvXNvNtNtNtNtCsfsPcvtvSBg5_13rag_toolchain7clients7open_ai5model10embeddingss2_1__NtB8_17EmbeddingResponseNtNtCseHmADR0RVY9_5serde2de11Deserialize11deserializeNtB3_14___FieldVisitorNtB1N_7Visitor9visit_u64pEBg_
FNDA:0,_RINvXNvXNvNtNtNtNtCsfsPcvtvSBg5_13rag_toolchain7clients7open_ai5model10embeddingss2_1__NtB8_17EmbeddingResponseNtNtCseHmADR0RVY9_5serde2de11Deserialize11deserializeNtB3_14___FieldVisitorNtB1N_7Visitor11visit_bytespEBg_
FNDA:0,_RNvXNvXNvNtNtNtNtCsfsPcvtvSBg5_13rag_toolchain7clients7open_ai5model10embeddingss3_1__NtB7_15EmbeddingObjectNtNtCseHmADR0RVY9_5serde2de11Deserialize11deserializeNtB2_14___FieldVisitorNtB1K_7Visitor9expecting
FNDA:0,_RINvXNvXNvNtNtNtNtCsfsPcvtvSBg5_13rag_toolchain7clients7open_ai5model10embeddingss3_1__NtB8_15EmbeddingObjectNtNtCseHmADR0RVY9_5serde2de11Deserialize11deserializeNtB3_14___FieldVisitorNtB1L_7Visitor9visit_u64pEBg_
FNDA:0,_RINvXNvXNvNtNtNtNtCsfsPcvtvSBg5_13rag_toolchain7clients7open_ai5model10embeddingss3_1__NtB8_15EmbeddingObjectNtNtCseHmADR0RVY9_5serde2de11Deserialize11deserializeNtB3_14___FieldVisitorNtB1L_7Visitor11visit_bytespEBg_
FNDA:0,_RNvXNvXNvNtNtNtNtCsfsPcvtvSBg5_13rag_toolchain7clients7open_ai5model10embeddingss5_1__NtB7_5UsageNtNtCseHmADR0RVY9_5serde2de11Deserialize11deserializeNtB2_14___FieldVisitorNtB1z_7Visitor9expecting
FNDA:0,_RINvXNvXNvNtNtNtNtCsfsPcvtvSBg5_13rag_toolchain7clients7open_ai5model10embeddingss5_1__NtB8_5UsageNtNtCseHmADR0RVY9_5serde2de11Deserialize11deserializeNtB3_14___FieldVisitorNtB1A_7Visitor9visit_u64pEBg_
FNDA:0,_RINvXNvXNvNtNtNtNtCsfsPcvtvSBg5_13rag_toolchain7clients7open_ai5model10embeddingss5_1__NtB8_5UsageNtNtCseHmADR0RVY9_5serde2de11Deserialize11deserializeNtB3_14___FieldVisitorNtB1A_7Visitor11visit_bytespEBg_
FNDA:0,_RINvXNvXNvNtNtNtNtCsfsPcvtvSBg5_13rag_toolchain7clients7open_ai5model10embeddingss7_1__NtB8_14EncodingFormatNtNtCseHmADR0RVY9_5serde2de11Deserialize11deserializeNtB3_14___FieldVisitorNtB1K_7Visitor9visit_u64pEBg_
FNDA:0,_RINvXNvXNvNtNtNtNtCsfsPcvtvSBg5_13rag_toolchain7clients7open_ai5model10embeddingss7_1__NtB8_14EncodingFormatNtNtCseHmADR0RVY9_5serde2de11Deserialize11deserializeNtB3_14___FieldVisitorNtB1K_7Visitor11visit_bytespEBg_
FNDA:0,_RNvXs0_NvXNvNtNtNtNtCsfsPcvtvSBg5_13rag_toolchain7clients7open_ai5model10embeddingss7_1__NtBa_14EncodingFormatNtNtCseHmADR0RVY9_5serde2de11Deserialize11deserializeNtB5_9___VisitorNtB1M_7Visitor9expecting
FNDA:0,_RNvXs0_NvXNvNtNtNtNtCsfsPcvtvSBg5_13rag_toolchain7clients7open_ai5model10embeddingss_1__NtBa_21BatchEmbeddingRequestNtNtCseHmADR0RVY9_5serde2de11Deserialize11deserializeNtB5_9___VisitorNtB1S_7Visitor9expecting
FNDA:0,_RNvXs0_NvXNvNtNtNtNtCsfsPcvtvSBg5_13rag_toolchain7clients7open_ai5model10embeddingss1_1__NtBa_16EmbeddingRequestNtNtCseHmADR0RVY9_5serde2de11Deserialize11deserializeNtB5_9___VisitorNtB1O_7Visitor9expecting
FNDA:0,_RNvXs0_NvXNvNtNtNtNtCsfsPcvtvSBg5_13rag_toolchain7clients7open_ai5model10embeddingss2_1__NtBa_17EmbeddingResponseNtNtCseHmADR0RVY9_5serde2de11Deserialize11deserializeNtB5_9___VisitorNtB1P_7Visitor9expecting
FNDA:0,_RNvXs0_NvXNvNtNtNtNtCsfsPcvtvSBg5_13rag_toolchain7clients7open_ai5model10embeddingss3_1__NtBa_15EmbeddingObjectNtNtCseHmADR0RVY9_5serde2de11Deserialize11deserializeNtB5_9___VisitorNtB1N_7Visitor9expecting
FNDA:0,_RNvXs0_NvXNvNtNtNtNtCsfsPcvtvSBg5_13rag_toolchain7clients7open_ai5model10embeddingss5_1__NtBa_5UsageNtNtCseHmADR0RVY9_5serde2de11Deserialize11deserializeNtB5_9___VisitorNtB1C_7Visitor9expecting
FNDA:0,_RNvXNvXNvNtNtNtNtCsfsPcvtvSBg5_13rag_toolchain7clients7open_ai5model10embeddingss7_1__NtB7_14EncodingFormatNtNtCseHmADR0RVY9_5serde2de11Deserialize11deserializeNtB2_14___FieldVisitorNtB1J_7Visitor9expecting
FNF:17
FNH:17
DA:6,5
DA:12,3
DA:15,3
DA:19,14
DA:25,3
DA:28,3
DA:32,27
DA:41,35
DA:49,15
DA:56,2
DA:74,1
DA:75,1
DA:76,1
DA:77,1
DA:78,1
DA:79,1
DA:80,1
DA:81,1
DA:82,1
DA:83,1
DA:84,1
DA:85,1
DA:88,1
DA:89,1
DA:90,1
DA:91,1
DA:92,1
DA:93,1
DA:94,1
DA:95,1
DA:96,1
DA:99,1
DA:100,1
DA:101,1
DA:102,1
DA:103,1
DA:104,1
DA:105,1
DA:106,1
DA:107,1
DA:108,1
DA:109,1
DA:110,1
DA:111,1
DA:112,1
DA:113,1
DA:114,1
DA:115,1
DA:118,1
DA:119,1
DA:120,1
DA:121,1
DA:122,1
DA:123,1
DA:124,1
DA:125,1
DA:126,1
DA:127,1
DA:128,1
DA:129,1
DA:130,1
DA:131,1
DA:134,1
DA:135,1
DA:136,1
DA:137,1
DA:138,1
DA:139,1
DA:140,1
DA:141,1
DA:142,1
DA:143,1
DA:144,1
DA:145,1
DA:146,1
DA:147,1
DA:150,1
DA:151,1
DA:152,1
DA:153,1
DA:154,1
DA:155,1
DA:156,1
DA:157,1
DA:158,1
DA:159,1
DA:160,1
DA:161,1
DA:162,1
DA:167,1
DA:168,1
DA:169,1
DA:170,1
DA:171,1
DA:172,1
DA:173,1
DA:174,1
DA:175,1
DA:176,1
DA:177,1
DA:178,1
DA:179,1
DA:180,1
DA:181,1
BRF:0
BRH:0
LF:104
LH:104
end_of_record
SF:/root/project/rust-rag-toolchain/rag-toolchain/src/clients/open_ai/model/errors.rs
FN:6,_RNvXNvXNvNtNtNtNtCsfsPcvtvSBg5_13rag_toolchain7clients7open_ai5model6errors1__NtB7_15OpenAIErrorBodyNtNtCseHmADR0RVY9_5serde2de11Deserialize11deserializeNtB2_14___FieldVisitorNtB1C_7Visitor9expecting
FN:6,_RINvXNvXNvNtNtNtNtCsfsPcvtvSBg5_13rag_toolchain7clients7open_ai5model6errors1__NtB8_15OpenAIErrorBodyNtNtCseHmADR0RVY9_5serde2de11Deserialize11deserializeNtB3_14___FieldVisitorNtB1D_7Visitor9visit_u64pEBg_
FN:6,_RINvXNvXNvNtNtNtNtCsfsPcvtvSBg5_13rag_toolchain7clients7open_ai5model6errors1__NtB8_15OpenAIErrorBodyNtNtCseHmADR0RVY9_5serde2de11Deserialize11deserializeNtB3_14___FieldVisitorNtB1D_7Visitor11visit_bytespEBg_
FN:11,_RNvXNvXNvNtNtNtNtCsfsPcvtvSBg5_13rag_toolchain7clients7open_ai5model6errorss_1__NtB7_15OpenAIErrorDataNtNtCseHmADR0RVY9_5serde2de11Deserialize11deserializeNtB2_14___FieldVisitorNtB1E_7Visitor9expecting
FN:11,_RINvXNvXNvNtNtNtNtCsfsPcvtvSBg5_13rag_toolchain7clients7open_ai5model6errorss_1__NtB8_15OpenAIErrorDataNtNtCseHmADR0RVY9_5serde2de11Deserialize11deserializeNtB3_14___FieldVisitorNtB1F_7Visitor9visit_u64pEBg_
FN:11,_RINvXNvXNvNtNtNtNtCsfsPcvtvSBg5_13rag_toolchain7clients7open_ai5model6errorss_1__NtB8_15OpenAIErrorDataNtNtCseHmADR0RVY9_5serde2de11Deserialize11deserializeNtB3_14___FieldVisitorNtB1F_7Visitor11visit_bytespEBg_
FN:45,_RNvXs_NtNtNtNtCsfsPcvtvSBg5_13rag_toolchain7clients7open_ai5model6errorsNtB4_11OpenAIErrorNtNtCsaYZPK01V26L_4core3fmt7Display3fmt
FN:6,_RNvXs0_NvXNvNtNtNtNtCsfsPcvtvSBg5_13rag_toolchain7clients7open_ai5model6errors1__NtBa_15OpenAIErrorBodyNtNtCseHmADR0RVY9_5serde2de11Deserialize11deserializeNtB5_9___VisitorNtB1F_7Visitor9expecting
FN:11,_RNvXs0_NvXNvNtNtNtNtCsfsPcvtvSBg5_13rag_toolchain7clients7open_ai5model6errorss_1__NtBa_15OpenAIErrorDataNtNtCseHmADR0RVY9_5serde2de11Deserialize11deserializeNtB5_9___VisitorNtB1H_7Visitor9expecting
FN:6,_RINvXNvXNvNtNtNtNtCsfsPcvtvSBg5_13rag_toolchain7clients7open_ai5model6errors1__NtB8_15OpenAIErrorBodyNtNtCseHmADR0RVY9_5serde2de11Deserialize11deserializeNtB3_14___FieldVisitorNtB1D_7Visitor9visit_strNtNtCse05LGF5xr5W_10serde_json5error5ErrorEBg_
FN:6,_RINvXs_NvXNvNtNtNtNtCsfsPcvtvSBg5_13rag_toolchain7clients7open_ai5model6errors1__NtBa_15OpenAIErrorBodyNtNtCseHmADR0RVY9_5serde2de11Deserialize11deserializeNtB5_7___FieldB1D_11deserializeINtNtCse05LGF5xr5W_10serde_json2de6MapKeyNtNtB34_4read7StrReadEEBi_
FN:6,_RINvXs0_NvXNvNtNtNtNtCsfsPcvtvSBg5_13rag_toolchain7clients7open_ai5model6errors1__NtBb_15OpenAIErrorBodyNtNtCseHmADR0RVY9_5serde2de11Deserialize11deserializeNtB6_9___VisitorNtB1G_7Visitor9visit_seqINtNtCse05LGF5xr5W_10serde_json2de9SeqAccessNtNtB3e_4read7StrReadEEBj_
FN:6,_RINvXs0_NvXNvNtNtNtNtCsfsPcvtvSBg5_13rag_toolchain7clients7open_ai5model6errors1__NtBb_15OpenAIErrorBodyNtNtCseHmADR0RVY9_5serde2de11Deserialize11deserializeNtB6_9___VisitorNtB1G_7Visitor9visit_mapINtNtCse05LGF5xr5W_10serde_json2de9MapAccessNtNtB3e_4read7StrReadEEBj_
FN:11,_RINvXNvXNvNtNtNtNtCsfsPcvtvSBg5_13rag_toolchain7clients7open_ai5model6errorss_1__NtB8_15OpenAIErrorDataNtNtCseHmADR0RVY9_5serde2de11Deserialize11deserializeNtB3_14___FieldVisitorNtB1F_7Visitor9visit_strNtNtCse05LGF5xr5W_10serde_json5error5ErrorEBg_
FN:11,_RINvXs_NvXNvNtNtNtNtCsfsPcvtvSBg5_13rag_toolchain7clients7open_ai5model6errorss_1__NtBa_15OpenAIErrorDataNtNtCseHmADR0RVY9_5serde2de11Deserialize11deserializeNtB5_7___FieldB1F_11deserializeINtNtCse05LGF5xr5W_10serde_json2de6MapKeyNtNtB36_4read7StrReadEEBi_
FN:11,_RINvXs0_NvXNvNtNtNtNtCsfsPcvtvSBg5_13rag_toolchain7clients7open_ai5model6errorss_1__NtBb_15OpenAIErrorDataNtNtCseHmADR0RVY9_5serde2de11Deserialize11deserializeNtB6_9___VisitorNtB1I_7Visitor9visit_seqINtNtCse05LGF5xr5W_10serde_json2de9SeqAccessNtNtB3g_4read7StrReadEEBj_
FN:11,_RINvXs0_NvXNvNtNtNtNtCsfsPcvtvSBg5_13rag_toolchain7clients7open_ai5model6errorss_1__NtBb_15OpenAIErrorDataNtNtCseHmADR0RVY9_5serde2de11Deserialize11deserializeNtB6_9___VisitorNtB1I_7Visitor9visit_mapINtNtCse05LGF5xr5W_10serde_json2de9MapAccessNtNtB3g_4read7StrReadEEBj_
FNDA:0,_RNvXNvXNvNtNtNtNtCsfsPcvtvSBg5_13rag_toolchain7clients7open_ai5model6errors1__NtB7_15OpenAIErrorBodyNtNtCseHmADR0RVY9_5serde2de11Deserialize11deserializeNtB2_14___FieldVisitorNtB1C_7Visitor9expecting
FNDA:0,_RINvXNvXNvNtNtNtNtCsfsPcvtvSBg5_13rag_toolchain7clients7open_ai5model6errors1__NtB8_15OpenAIErrorBodyNtNtCseHmADR0RVY9_5serde2de11Deserialize11deserializeNtB3_14___FieldVisitorNtB1D_7Visitor9visit_u64pEBg_
FNDA:0,_RINvXNvXNvNtNtNtNtCsfsPcvtvSBg5_13rag_toolchain7clients7open_ai5model6errors1__NtB8_15OpenAIErrorBodyNtNtCseHmADR0RVY9_5serde2de11Deserialize11deserializeNtB3_14___FieldVisitorNtB1D_7Visitor11visit_bytespEBg_
FNDA:0,_RNvXNvXNvNtNtNtNtCsfsPcvtvSBg5_13rag_toolchain7clients7open_ai5model6errorss_1__NtB7_15OpenAIErrorDataNtNtCseHmADR0RVY9_5serde2de11Deserialize11deserializeNtB2_14___FieldVisitorNtB1E_7Visitor9expecting
FNDA:0,_RINvXNvXNvNtNtNtNtCsfsPcvtvSBg5_13rag_toolchain7clients7open_ai5model6errorss_1__NtB8_15OpenAIErrorDataNtNtCseHmADR0RVY9_5serde2de11Deserialize11deserializeNtB3_14___FieldVisitorNtB1F_7Visitor9visit_u64pEBg_
FNDA:0,_RINvXNvXNvNtNtNtNtCsfsPcvtvSBg5_13rag_toolchain7clients7open_ai5model6errorss_1__NtB8_15OpenAIErrorDataNtNtCseHmADR0RVY9_5serde2de11Deserialize11deserializeNtB3_14___FieldVisitorNtB1F_7Visitor11visit_bytespEBg_
FNDA:0,_RNvXs_NtNtNtNtCsfsPcvtvSBg5_13rag_toolchain7clients7open_ai5model6errorsNtB4_11OpenAIErrorNtNtCsaYZPK01V26L_4core3fmt7Display3fmt
FNDA:0,_RNvXs0_NvXNvNtNtNtNtCsfsPcvtvSBg5_13rag_toolchain7clients7open_ai5model6errors1__NtBa_15OpenAIErrorBodyNtNtCseHmADR0RVY9_5serde2de11Deserialize11deserializeNtB5_9___VisitorNtB1F_7Visitor9expecting
FNDA:0,_RNvXs0_NvXNvNtNtNtNtCsfsPcvtvSBg5_13rag_toolchain7clients7open_ai5model6errorss_1__NtBa_15OpenAIErrorDataNtNtCseHmADR0RVY9_5serde2de11Deserialize11deserializeNtB5_9___VisitorNtB1H_7Visitor9expecting
FNDA:15,_RINvXNvXNvNtNtNtNtCsfsPcvtvSBg5_13rag_toolchain7clients7open_ai5model6errors1__NtB8_15OpenAIErrorBodyNtNtCseHmADR0RVY9_5serde2de11Deserialize11deserializeNtB3_14___FieldVisitorNtB1D_7Visitor9visit_strNtNtCse05LGF5xr5W_10serde_json5error5ErrorEBg_
FNDA:15,_RINvXs_NvXNvNtNtNtNtCsfsPcvtvSBg5_13rag_toolchain7clients7open_ai5model6errors1__NtBa_15OpenAIErrorBodyNtNtCseHmADR0RVY9_5serde2de11Deserialize11deserializeNtB5_7___FieldB1D_11deserializeINtNtCse05LGF5xr5W_10serde_json2de6MapKeyNtNtB34_4read7StrReadEEBi_
FNDA:0,_RINvXs0_NvXNvNtNtNtNtCsfsPcvtvSBg5_13rag_toolchain7clients7open_ai5model6errors1__NtBb_15OpenAIErrorBodyNtNtCseHmADR0RVY9_5serde2de11Deserialize11deserializeNtB6_9___VisitorNtB1G_7Visitor9visit_seqINtNtCse05LGF5xr5W_10serde_json2de9SeqAccessNtNtB3e_4read7StrReadEEBj_
FNDA:15,_RINvXs0_NvXNvNtNtNtNtCsfsPcvtvSBg5_13rag_toolchain7clients7open_ai5model6errors1__NtBb_15OpenAIErrorBodyNtNtCseHmADR0RVY9_5serde2de11Deserialize11deserializeNtB6_9___VisitorNtB1G_7Visitor9visit_mapINtNtCse05LGF5xr5W_10serde_json2de9MapAccessNtNtB3e_4read7StrReadEEBj_
FNDA:60,_RINvXNvXNvNtNtNtNtCsfsPcvtvSBg5_13rag_toolchain7clients7open_ai5model6errorss_1__NtB8_15OpenAIErrorDataNtNtCseHmADR0RVY9_5serde2de11Deserialize11deserializeNtB3_14___FieldVisitorNtB1F_7Visitor9visit_strNtNtCse05LGF5xr5W_10serde_json5error5ErrorEBg_
FNDA:60,_RINvXs_NvXNvNtNtNtNtCsfsPcvtvSBg5_13rag_toolchain7clients7open_ai5model6errorss_1__NtBa_15OpenAIErrorDataNtNtCseHmADR0RVY9_5serde2de11Deserialize11deserializeNtB5_7___FieldB1F_11deserializeINtNtCse05LGF5xr5W_10serde_json2de6MapKeyNtNtB36_4read7StrReadEEBi_
FNDA:0,_RINvXs0_NvXNvNtNtNtNtCsfsPcvtvSBg5_13rag_toolchain7clients7open_ai5model6errorss_1__NtBb_15OpenAIErrorDataNtNtCseHmADR0RVY9_5serde2de11Deserialize11deserializeNtB6_9___VisitorNtB1I_7Visitor9visit_seqINtNtCse05LGF5xr5W_10serde_json2de9SeqAccessNtNtB3g_4read7StrReadEEBj_
FNDA:15,_RINvXs0_NvXNvNtNtNtNtCsfsPcvtvSBg5_13rag_toolchain7clients7open_ai5model6errorss_1__NtBb_15OpenAIErrorDataNtNtCseHmADR0RVY9_5serde2de11Deserialize11deserializeNtB6_9___VisitorNtB1I_7Visitor9visit_mapINtNtCse05LGF5xr5W_10serde_json2de9MapAccessNtNtB3g_4read7StrReadEEBj_
FNF:3
FNH:2
DA:6,45
DA:11,135
DA:45,0
DA:46,0
DA:47,0
DA:48,0
DA:50,0
DA:51,0
DA:52,0
DA:53,0
DA:54,0
DA:55,0
DA:56,0
DA:57,0
DA:58,0
DA:59,0
DA:60,0
DA:61,0
DA:63,0
DA:64,0
DA:65,0
DA:66,0
DA:67,0
DA:68,0
DA:69,0
DA:71,0
DA:72,0
DA:74,0
DA:75,0
DA:77,0
DA:78,0
DA:79,0
DA:80,0
DA:81,0
DA:82,0
DA:84,0
DA:85,0
DA:88,0
BRF:0
BRH:0
LF:38
LH:2
end_of_record
SF:/root/project/rust-rag-toolchain/rag-toolchain/src/clients/open_ai/open_ai_chat_completions.rs
FN:386,_RNvNtNtNtNtCsfsPcvtvSBg5_13rag_toolchain7clients7open_ai24open_ai_chat_completions27chat_completion_client_test19with_mocked_request
FN:401,_RNvNtNtNtNtCsfsPcvtvSBg5_13rag_toolchain7clients7open_ai24open_ai_chat_completions27chat_completion_client_test18with_mocked_client
FN:361,_RNvNtNtNtNtCsfsPcvtvSBg5_13rag_toolchain7clients7open_ai24open_ai_chat_completions27chat_completion_client_tests_30test_correct_response_succeeds
FN:373,_RNvNtNtNtNtCsfsPcvtvSBg5_13rag_toolchain7clients7open_ai24open_ai_chat_completions27chat_completion_client_tests_34test_error_response_maps_correctly
FN:102,_RNvMNtNtNtCsfsPcvtvSBg5_13rag_toolchain7clients7open_ai24open_ai_chat_completionsNtB2_26OpenAIChatCompletionClient30try_new_with_additional_config
FN:172,_RNvXs0_NtNtNtCsfsPcvtvSBg5_13rag_toolchain7clients7open_ai24open_ai_chat_completionsNtB5_26OpenAIChatCompletionClientNtNtB9_6traits23AsyncStreamedChatClient13invoke_stream
FN:175,_RNCNvXs0_NtNtNtCsfsPcvtvSBg5_13rag_toolchain7clients7open_ai24open_ai_chat_completionsNtB7_26OpenAIChatCompletionClientNtNtBb_6traits23AsyncStreamedChatClient13invoke_stream0Bd_
FN:217,_RNvMs1_NtNtNtCsfsPcvtvSBg5_13rag_toolchain7clients7open_ai24open_ai_chat_completionsNtB5_22OpenAICompletionStream3new
FN:235,_RNvMs1_NtNtNtCsfsPcvtvSBg5_13rag_toolchain7clients7open_ai24open_ai_chat_completionsNtB5_22OpenAICompletionStream13parse_message
FN:295,_RNvXs2_NtNtNtCsfsPcvtvSBg5_13rag_toolchain7clients7open_ai24open_ai_chat_completionsNtB5_22OpenAICompletionStreamNtNtB9_6traits20ChatCompletionStream4next
FN:295,_RNCNvXs2_NtNtNtCsfsPcvtvSBg5_13rag_toolchain7clients7open_ai24open_ai_chat_completionsNtB7_22OpenAICompletionStreamNtNtBb_6traits20ChatCompletionStream4next0Bd_
FN:134,_RNCNvXs_NtNtNtCsfsPcvtvSBg5_13rag_toolchain7clients7open_ai24open_ai_chat_completionsNtB6_26OpenAIChatCompletionClientNtNtBa_6traits15AsyncChatClient6invoke0Bc_
FN:149,_RNCNCNvXs_NtNtNtCsfsPcvtvSBg5_13rag_toolchain7clients7open_ai24open_ai_chat_completionsNtB8_26OpenAIChatCompletionClientNtNtBc_6traits15AsyncChatClient6invoke00Be_
FN:401,_RNCNvNtNtNtNtCsfsPcvtvSBg5_13rag_toolchain7clients7open_ai24open_ai_chat_completions27chat_completion_client_test18with_mocked_client0Bb_
FN:361,_RNCNvNtNtNtNtCsfsPcvtvSBg5_13rag_toolchain7clients7open_ai24open_ai_chat_completions27chat_completion_client_tests_30test_correct_response_succeeds0Bb_
FN:373,_RNCNvNtNtNtNtCsfsPcvtvSBg5_13rag_toolchain7clients7open_ai24open_ai_chat_completions27chat_completion_client_tests_34test_error_response_maps_correctly0Bb_
FN:72,_RNvMNtNtNtCsfsPcvtvSBg5_13rag_toolchain7clients7open_ai24open_ai_chat_completionsNtB2_26OpenAIChatCompletionClient7try_new
FN:131,_RNvXs_NtNtNtCsfsPcvtvSBg5_13rag_toolchain7clients7open_ai24open_ai_chat_completionsNtB4_26OpenAIChatCompletionClientNtNtB8_6traits15AsyncChatClient6invoke
FNDA:2,_RNvNtNtNtNtCsfsPcvtvSBg5_13rag_toolchain7clients7open_ai24open_ai_chat_completions27chat_completion_client_test19with_mocked_request
FNDA:2,_RNvNtNtNtNtCsfsPcvtvSBg5_13rag_toolchain7clients7open_ai24open_ai_chat_completions27chat_completion_client_test18with_mocked_client
FNDA:1,_RNvNtNtNtNtCsfsPcvtvSBg5_13rag_toolchain7clients7open_ai24open_ai_chat_completions27chat_completion_client_tests_30test_correct_response_succeeds
FNDA:1,_RNvNtNtNtNtCsfsPcvtvSBg5_13rag_toolchain7clients7open_ai24open_ai_chat_completions27chat_completion_client_tests_34test_error_response_maps_correctly
FNDA:0,_RNvMNtNtNtCsfsPcvtvSBg5_13rag_toolchain7clients7open_ai24open_ai_chat_completionsNtB2_26OpenAIChatCompletionClient30try_new_with_additional_config
FNDA:0,_RNvXs0_NtNtNtCsfsPcvtvSBg5_13rag_toolchain7clients7open_ai24open_ai_chat_completionsNtB5_26OpenAIChatCompletionClientNtNtB9_6traits23AsyncStreamedChatClient13invoke_stream
FNDA:0,_RNCNvXs0_NtNtNtCsfsPcvtvSBg5_13rag_toolchain7clients7open_ai24open_ai_chat_completionsNtB7_26OpenAIChatCompletionClientNtNtBb_6traits23AsyncStreamedChatClient13invoke_stream0Bd_
FNDA:0,_RNvMs1_NtNtNtCsfsPcvtvSBg5_13rag_toolchain7clients7open_ai24open_ai_chat_completionsNtB5_22OpenAICompletionStream3new
FNDA:0,_RNvMs1_NtNtNtCsfsPcvtvSBg5_13rag_toolchain7clients7open_ai24open_ai_chat_completionsNtB5_22OpenAICompletionStream13parse_message
FNDA:0,_RNvXs2_NtNtNtCsfsPcvtvSBg5_13rag_toolchain7clients7open_ai24open_ai_chat_completionsNtB5_22OpenAICompletionStreamNtNtB9_6traits20ChatCompletionStream4next
FNDA:0,_RNCNvXs2_NtNtNtCsfsPcvtvSBg5_13rag_toolchain7clients7open_ai24open_ai_chat_completionsNtB7_22OpenAICompletionStreamNtNtBb_6traits20ChatCompletionStream4next0Bd_
FNDA:2,_RNCNvXs_NtNtNtCsfsPcvtvSBg5_13rag_toolchain7clients7open_ai24open_ai_chat_completionsNtB6_26OpenAIChatCompletionClientNtNtBa_6traits15AsyncChatClient6invoke0Bc_
FNDA:1,_RNCNCNvXs_NtNtNtCsfsPcvtvSBg5_13rag_toolchain7clients7open_ai24open_ai_chat_completionsNtB8_26OpenAIChatCompletionClientNtNtBc_6traits15AsyncChatClient6invoke00Be_
FNDA:2,_RNCNvNtNtNtNtCsfsPcvtvSBg5_13rag_toolchain7clients7open_ai24open_ai_chat_completions27chat_completion_client_test18with_mocked_client0Bb_
FNDA:1,_RNCNvNtNtNtNtCsfsPcvtvSBg5_13rag_toolchain7clients7open_ai24open_ai_chat_completions27chat_completion_client_tests_30test_correct_response_succeeds0Bb_
FNDA:1,_RNCNvNtNtNtNtCsfsPcvtvSBg5_13rag_toolchain7clients7open_ai24open_ai_chat_completions27chat_completion_client_tests_34test_error_response_maps_correctly0Bb_
FNDA:2,_RNvMNtNtNtCsfsPcvtvSBg5_13rag_toolchain7clients7open_ai24open_ai_chat_completionsNtB2_26OpenAIChatCompletionClient7try_new
FNDA:2,_RNvXs_NtNtNtCsfsPcvtvSBg5_13rag_toolchain7clients7open_ai24open_ai_chat_completionsNtB4_26OpenAIChatCompletionClientNtNtB8_6traits15AsyncChatClient6invoke
FNF:18
FNH:11
DA:72,2
DA:73,2
DA:74,2
DA:75,2
DA:76,2
DA:77,2
DA:78,2
DA:79,2
DA:80,2
DA:102,0
DA:103,0
DA:104,0
DA:105,0
DA:106,0
DA:107,0
DA:108,0
DA:109,0
DA:110,0
DA:111,0
DA:112,0
DA:113,0
DA:131,2
DA:132,2
DA:133,2
DA:134,2
DA:135,2
DA:136,2
DA:137,2
DA:138,2
DA:139,2
DA:140,2
DA:141,2
DA:142,2
DA:143,2
DA:145,6
DA:146,1
DA:147,1
DA:148,1
DA:149,1
DA:150,1
DA:151,1
DA:152,1
DA:153,2
DA:172,0
DA:173,0
DA:174,0
DA:175,0
DA:176,0
DA:177,0
DA:178,0
DA:179,0
DA:180,0
DA:181,0
DA:182,0
DA:183,0
DA:184,0
DA:186,0
DA:187,0
DA:188,0
DA:217,0
DA:218,0
DA:219,0
DA:235,0
DA:236,0
DA:237,0
DA:238,0
DA:239,0
DA:240,0
DA:241,0
DA:242,0
DA:245,0
DA:246,0
DA:247,0
DA:248,0
DA:249,0
DA:251,0
DA:253,0
DA:295,0
DA:296,0
DA:298,0
DA:299,0
DA:300,0
DA:301,0
DA:302,0
DA:306,0
DA:307,0
DA:308,0
DA:309,0
DA:310,0
DA:312,0
DA:315,0
DA:317,0
DA:361,1
DA:362,1
DA:363,1
DA:364,1
DA:365,3
DA:366,1
DA:367,1
DA:368,1
DA:369,1
DA:370,1
DA:373,1
DA:374,1
DA:375,1
DA:376,1
DA:377,3
DA:378,1
DA:379,1
DA:380,1
DA:381,1
DA:382,1
DA:386,2
DA:387,2
DA:388,2
DA:389,2
DA:390,2
DA:391,2
DA:392,2
DA:393,2
DA:394,2
DA:395,2
DA:396,2
DA:397,2
DA:401,2
DA:402,2
DA:403,2
DA:404,2
DA:405,2
DA:406,2
DA:407,2
DA:408,2
DA:409,2
BRF:0
BRH:0
LF:156
LH:93
end_of_record
SF:/root/project/rust-rag-toolchain/rag-toolchain/src/clients/open_ai/open_ai_core.rs
FN:89,_RINvMNtNtNtCsfsPcvtvSBg5_13rag_toolchain7clients7open_ai12open_ai_coreNtB3_16OpenAIHttpClient19send_stream_requestpEB9_
FN:96,_RNCINvMNtNtNtCsfsPcvtvSBg5_13rag_toolchain7clients7open_ai12open_ai_coreNtB5_16OpenAIHttpClient19send_stream_requestpE0Bb_
FN:100,_RNCNCINvMNtNtNtCsfsPcvtvSBg5_13rag_toolchain7clients7open_ai12open_ai_coreNtB7_16OpenAIHttpClient19send_stream_requestpE00Bd_
FN:272,_RNvXNvXNvNtNtNtNtCsfsPcvtvSBg5_13rag_toolchain7clients7open_ai12open_ai_core18open_ai_core_testss_1__NtB7_11RequestBodyNtNtCseHmADR0RVY9_5serde2de11Deserialize11deserializeNtB2_14___FieldVisitorNtB1V_7Visitor9expecting
FN:272,_RINvXNvXNvNtNtNtNtCsfsPcvtvSBg5_13rag_toolchain7clients7open_ai12open_ai_core18open_ai_core_testss_1__NtB8_11RequestBodyNtNtCseHmADR0RVY9_5serde2de11Deserialize11deserializeNtB3_14___FieldVisitorNtB1W_7Visitor9visit_u64pEBg_
FN:272,_RINvXNvXNvNtNtNtNtCsfsPcvtvSBg5_13rag_toolchain7clients7open_ai12open_ai_core18open_ai_core_testss_1__NtB8_11RequestBodyNtNtCseHmADR0RVY9_5serde2de11Deserialize11deserializeNtB3_14___FieldVisitorNtB1W_7Visitor11visit_bytespEBg_
FN:57,_RINvMNtNtNtCsfsPcvtvSBg5_13rag_toolchain7clients7open_ai12open_ai_coreNtB3_16OpenAIHttpClient12send_requestNtNtB3_18open_ai_core_tests11RequestBodyB1H_EB9_
FN:57,_RINvMNtNtNtCsfsPcvtvSBg5_13rag_toolchain7clients7open_ai12open_ai_coreNtB3_16OpenAIHttpClient12send_requestNtNtNtB5_5model10embeddings16EmbeddingRequestNtB1J_17EmbeddingResponseEB9_
FN:57,_RINvMNtNtNtCsfsPcvtvSBg5_13rag_toolchain7clients7open_ai12open_ai_coreNtB3_16OpenAIHttpClient12send_requestNtNtNtB5_5model10embeddings21BatchEmbeddingRequestNtB1J_17EmbeddingResponseEB9_
FN:57,_RINvMNtNtNtCsfsPcvtvSBg5_13rag_toolchain7clients7open_ai12open_ai_coreNtB3_16OpenAIHttpClient12send_requestNtNtNtB5_5model16chat_completions21ChatCompletionRequestNtB1J_22ChatCompletionResponseEB9_
FN:61,_RNCINvMNtNtNtCsfsPcvtvSBg5_13rag_toolchain7clients7open_ai12open_ai_coreNtB5_16OpenAIHttpClient12send_requestNtNtB5_18open_ai_core_tests11RequestBodyB1J_E0Bb_
FN:61,_RNCINvMNtNtNtCsfsPcvtvSBg5_13rag_toolchain7clients7open_ai12open_ai_coreNtB5_16OpenAIHttpClient12send_requestNtNtNtB7_5model10embeddings16EmbeddingRequestNtB1L_17EmbeddingResponseE0Bb_
FN:61,_RNCINvMNtNtNtCsfsPcvtvSBg5_13rag_toolchain7clients7open_ai12open_ai_coreNtB5_16OpenAIHttpClient12send_requestNtNtNtB7_5model10embeddings21BatchEmbeddingRequestNtB1L_17EmbeddingResponseE0Bb_
FN:61,_RNCINvMNtNtNtCsfsPcvtvSBg5_13rag_toolchain7clients7open_ai12open_ai_coreNtB5_16OpenAIHttpClient12send_requestNtNtNtB7_5model16chat_completions21ChatCompletionRequestNtB1L_22ChatCompletionResponseE0Bb_
FN:66,_RNCNCINvMNtNtNtCsfsPcvtvSBg5_13rag_toolchain7clients7open_ai12open_ai_coreNtB7_16OpenAIHttpClient12send_requestNtNtB7_18open_ai_core_tests11RequestBodyB1L_E00Bd_
FN:66,_RNCNCINvMNtNtNtCsfsPcvtvSBg5_13rag_toolchain7clients7open_ai12open_ai_coreNtB7_16OpenAIHttpClient12send_requestNtNtNtB9_5model10embeddings16EmbeddingRequestNtB1N_17EmbeddingResponseE00Bd_
FN:66,_RNCNCINvMNtNtNtCsfsPcvtvSBg5_13rag_toolchain7clients7open_ai12open_ai_coreNtB7_16OpenAIHttpClient12send_requestNtNtNtB9_5model10embeddings21BatchEmbeddingRequestNtB1N_17EmbeddingResponseE00Bd_
FN:66,_RNCNCINvMNtNtNtCsfsPcvtvSBg5_13rag_toolchain7clients7open_ai12open_ai_coreNtB7_16OpenAIHttpClient12send_requestNtNtNtB9_5model16chat_completions21ChatCompletionRequestNtB1N_22ChatCompletionResponseE00Bd_
FN:78,_RNCNCINvMNtNtNtCsfsPcvtvSBg5_13rag_toolchain7clients7open_ai12open_ai_coreNtB7_16OpenAIHttpClient12send_requestNtNtB7_18open_ai_core_tests11RequestBodyB1L_E0s_0Bd_
FN:78,_RNCNCINvMNtNtNtCsfsPcvtvSBg5_13rag_toolchain7clients7open_ai12open_ai_coreNtB7_16OpenAIHttpClient12send_requestNtNtNtB9_5model10embeddings16EmbeddingRequestNtB1N_17EmbeddingResponseE0s_0Bd_
FN:78,_RNCNCINvMNtNtNtCsfsPcvtvSBg5_13rag_toolchain7clients7open_ai12open_ai_coreNtB7_16OpenAIHttpClient12send_requestNtNtNtB9_5model10embeddings21BatchEmbeddingRequestNtB1N_17EmbeddingResponseE0s_0Bd_
FN:78,_RNCNCINvMNtNtNtCsfsPcvtvSBg5_13rag_toolchain7clients7open_ai12open_ai_coreNtB7_16OpenAIHttpClient12send_requestNtNtNtB9_5model16chat_completions21ChatCompletionRequestNtB1N_22ChatCompletionResponseE0s_0Bd_
FN:80,_RNCNCINvMNtNtNtCsfsPcvtvSBg5_13rag_toolchain7clients7open_ai12open_ai_coreNtB7_16OpenAIHttpClient12send_requestNtNtB7_18open_ai_core_tests11RequestBodyB1L_E0s0_0Bd_
FN:80,_RNCNCINvMNtNtNtCsfsPcvtvSBg5_13rag_toolchain7clients7open_ai12open_ai_coreNtB7_16OpenAIHttpClient12send_requestNtNtNtB9_5model10embeddings16EmbeddingRequestNtB1N_17EmbeddingResponseE0s0_0Bd_
FN:80,_RNCNCINvMNtNtNtCsfsPcvtvSBg5_13rag_toolchain7clients7open_ai12open_ai_coreNtB7_16OpenAIHttpClient12send_requestNtNtNtB9_5model10embeddings21BatchEmbeddingRequestNtB1N_17EmbeddingResponseE0s0_0Bd_
FN:80,_RNCNCINvMNtNtNtCsfsPcvtvSBg5_13rag_toolchain7clients7open_ai12open_ai_coreNtB7_16OpenAIHttpClient12send_requestNtNtNtB9_5model16chat_completions21ChatCompletionRequestNtB1N_22ChatCompletionResponseE0s0_0Bd_
FN:107,_RINvMNtNtNtCsfsPcvtvSBg5_13rag_toolchain7clients7open_ai12open_ai_coreNtB3_16OpenAIHttpClient14build_requesetNtNtB3_18open_ai_core_tests11RequestBodyEB9_
FN:107,_RINvMNtNtNtCsfsPcvtvSBg5_13rag_toolchain7clients7open_ai12open_ai_coreNtB3_16OpenAIHttpClient14build_requesetNtNtNtB5_5model10embeddings16EmbeddingRequestEB9_
FN:107,_RINvMNtNtNtCsfsPcvtvSBg5_13rag_toolchain7clients7open_ai12open_ai_coreNtB3_16OpenAIHttpClient14build_requesetNtNtNtB5_5model10embeddings21BatchEmbeddingRequestEB9_
FN:107,_RINvMNtNtNtCsfsPcvtvSBg5_13rag_toolchain7clients7open_ai12open_ai_coreNtB3_16OpenAIHttpClient14build_requesetNtNtNtB5_5model16chat_completions21ChatCompletionRequestEB9_
FN:128,_RNCNvMNtNtNtCsfsPcvtvSBg5_13rag_toolchain7clients7open_ai12open_ai_coreNtB4_16OpenAIHttpClient21handle_error_response0Ba_
FN:31,_RNvMNtNtNtCsfsPcvtvSBg5_13rag_toolchain7clients7open_ai12open_ai_coreNtB2_16OpenAIHttpClient7try_new
FN:128,_RNvMNtNtNtCsfsPcvtvSBg5_13rag_toolchain7clients7open_ai12open_ai_coreNtB2_16OpenAIHttpClient21handle_error_response
FN:234,_RNvNtNtNtNtCsfsPcvtvSBg5_13rag_toolchain7clients7open_ai12open_ai_core18open_ai_core_tests21assert_status_mapping
FN:250,_RNvNtNtNtNtCsfsPcvtvSBg5_13rag_toolchain7clients7open_ai12open_ai_core18open_ai_core_tests19with_mocked_request
FN:265,_RNvNtNtNtNtCsfsPcvtvSBg5_13rag_toolchain7clients7open_ai12open_ai_core18open_ai_core_tests18with_mocked_client
FN:171,_RNvNtNtNtNtCsfsPcvtvSBg5_13rag_toolchain7clients7open_ai12open_ai_core18open_ai_core_testss_25status_400_maps_correctly
FN:178,_RNvNtNtNtNtCsfsPcvtvSBg5_13rag_toolchain7clients7open_ai12open_ai_core18open_ai_core_testss_25status_401_maps_correctly
FN:185,_RNvNtNtNtNtCsfsPcvtvSBg5_13rag_toolchain7clients7open_ai12open_ai_core18open_ai_core_testss_25status_429_maps_correctly
FN:192,_RNvNtNtNtNtCsfsPcvtvSBg5_13rag_toolchain7clients7open_ai12open_ai_core18open_ai_core_testss_25status_500_maps_correctly
FN:199,_RNvNtNtNtNtCsfsPcvtvSBg5_13rag_toolchain7clients7open_ai12open_ai_core18open_ai_core_testss_25status_503_maps_correctly
FN:206,_RNvNtNtNtNtCsfsPcvtvSBg5_13rag_toolchain7clients7open_ai12open_ai_core18open_ai_core_testss_24undefined_maps_correctly
FN:212,_RNvNtNtNtNtCsfsPcvtvSBg5_13rag_toolchain7clients7open_ai12open_ai_core18open_ai_core_testss_48error_deserializing_response_body_maps_correctly
FN:272,_RNvXs0_NvXNvNtNtNtNtCsfsPcvtvSBg5_13rag_toolchain7clients7open_ai12open_ai_core18open_ai_core_testss_1__NtBa_11RequestBodyNtNtCseHmADR0RVY9_5serde2de11Deserialize11deserializeNtB5_9___VisitorNtB1Y_7Visitor9expecting
FN:234,_RNCNvNtNtNtNtCsfsPcvtvSBg5_13rag_toolchain7clients7open_ai12open_ai_core18open_ai_core_tests21assert_status_mapping0Bb_
FN:265,_RNCNvNtNtNtNtCsfsPcvtvSBg5_13rag_toolchain7clients7open_ai12open_ai_core18open_ai_core_tests18with_mocked_client0Bb_
FN:171,_RNCNvNtNtNtNtCsfsPcvtvSBg5_13rag_toolchain7clients7open_ai12open_ai_core18open_ai_core_testss_25status_400_maps_correctly0Bb_
FN:178,_RNCNvNtNtNtNtCsfsPcvtvSBg5_13rag_toolchain7clients7open_ai12open_ai_core18open_ai_core_testss_25status_401_maps_correctly0Bb_
FN:185,_RNCNvNtNtNtNtCsfsPcvtvSBg5_13rag_toolchain7clients7open_ai12open_ai_core18open_ai_core_testss_25status_429_maps_correctly0Bb_
FN:192,_RNCNvNtNtNtNtCsfsPcvtvSBg5_13rag_toolchain7clients7open_ai12open_ai_core18open_ai_core_testss_25status_500_maps_correctly0Bb_
FN:199,_RNCNvNtNtNtNtCsfsPcvtvSBg5_13rag_toolchain7clients7open_ai12open_ai_core18open_ai_core_testss_25status_503_maps_correctly0Bb_
FN:206,_RNCNvNtNtNtNtCsfsPcvtvSBg5_13rag_toolchain7clients7open_ai12open_ai_core18open_ai_core_testss_24undefined_maps_correctly0Bb_
FN:212,_RNCNvNtNtNtNtCsfsPcvtvSBg5_13rag_toolchain7clients7open_ai12open_ai_core18open_ai_core_testss_48error_deserializing_response_body_maps_correctly0Bb_
FN:272,_RINvXNvXNvNtNtNtNtCsfsPcvtvSBg5_13rag_toolchain7clients7open_ai12open_ai_core18open_ai_core_testss_1__NtB8_11RequestBodyNtNtCseHmADR0RVY9_5serde2de11Deserialize11deserializeNtB3_14___FieldVisitorNtB1W_7Visitor9visit_strNtNtCse05LGF5xr5W_10serde_json5error5ErrorEBg_
FN:272,_RINvXs_NvXNvNtNtNtNtCsfsPcvtvSBg5_13rag_toolchain7clients7open_ai12open_ai_core18open_ai_core_testss_1__NtBa_11RequestBodyNtNtCseHmADR0RVY9_5serde2de11Deserialize11deserializeNtB5_7___FieldB1W_11deserializeINtNtCse05LGF5xr5W_10serde_json2de6MapKeyNtNtB3n_4read7StrReadEEBi_
FN:272,_RINvXs0_NvXNvNtNtNtNtCsfsPcvtvSBg5_13rag_toolchain7clients7open_ai12open_ai_core18open_ai_core_testss_1__NtBb_11RequestBodyNtNtCseHmADR0RVY9_5serde2de11Deserialize11deserializeNtB6_9___VisitorNtB1Z_7Visitor9visit_seqINtNtCse05LGF5xr5W_10serde_json2de9SeqAccessNtNtB3x_4read7StrReadEEBj_
FN:272,_RINvXs0_NvXNvNtNtNtNtCsfsPcvtvSBg5_13rag_toolchain7clients7open_ai12open_ai_core18open_ai_core_testss_1__NtBb_11RequestBodyNtNtCseHmADR0RVY9_5serde2de11Deserialize11deserializeNtB6_9___VisitorNtB1Z_7Visitor9visit_mapINtNtCse05LGF5xr5W_10serde_json2de9MapAccessNtNtB3x_4read7StrReadEEBj_
FNDA:0,_RINvMNtNtNtCsfsPcvtvSBg5_13rag_toolchain7clients7open_ai12open_ai_coreNtB3_16OpenAIHttpClient19send_stream_requestpEB9_
FNDA:0,_RNCINvMNtNtNtCsfsPcvtvSBg5_13rag_toolchain7clients7open_ai12open_ai_coreNtB5_16OpenAIHttpClient19send_stream_requestpE0Bb_
FNDA:0,_RNCNCINvMNtNtNtCsfsPcvtvSBg5_13rag_toolchain7clients7open_ai12open_ai_coreNtB7_16OpenAIHttpClient19send_stream_requestpE00Bd_
FNDA:0,_RNvXNvXNvNtNtNtNtCsfsPcvtvSBg5_13rag_toolchain7clients7open_ai12open_ai_core18open_ai_core_testss_1__NtB7_11RequestBodyNtNtCseHmADR0RVY9_5serde2de11Deserialize11deserializeNtB2_14___FieldVisitorNtB1V_7Visitor9expecting
FNDA:0,_RINvXNvXNvNtNtNtNtCsfsPcvtvSBg5_13rag_toolchain7clients7open_ai12open_ai_core18open_ai_core_testss_1__NtB8_11RequestBodyNtNtCseHmADR0RVY9_5serde2de11Deserialize11deserializeNtB3_14___FieldVisitorNtB1W_7Visitor9visit_u64pEBg_
FNDA:0,_RINvXNvXNvNtNtNtNtCsfsPcvtvSBg5_13rag_toolchain7clients7open_ai12open_ai_core18open_ai_core_testss_1__NtB8_11RequestBodyNtNtCseHmADR0RVY9_5serde2de11Deserialize11deserializeNtB3_14___FieldVisitorNtB1W_7Visitor11visit_bytespEBg_
FNDA:7,_RINvMNtNtNtCsfsPcvtvSBg5_13rag_toolchain7clients7open_ai12open_ai_coreNtB3_16OpenAIHttpClient12send_requestNtNtB3_18open_ai_core_tests11RequestBodyB1H_EB9_
FNDA:2,_RINvMNtNtNtCsfsPcvtvSBg5_13rag_toolchain7clients7open_ai12open_ai_coreNtB3_16OpenAIHttpClient12send_requestNtNtNtB5_5model10embeddings16EmbeddingRequestNtB1J_17EmbeddingResponseEB9_
FNDA:2,_RINvMNtNtNtCsfsPcvtvSBg5_13rag_toolchain7clients7open_ai12open_ai_coreNtB3_16OpenAIHttpClient12send_requestNtNtNtB5_5model10embeddings21BatchEmbeddingRequestNtB1J_17EmbeddingResponseEB9_
FNDA:2,_RINvMNtNtNtCsfsPcvtvSBg5_13rag_toolchain7clients7open_ai12open_ai_coreNtB3_16OpenAIHttpClient12send_requestNtNtNtB5_5model16chat_completions21ChatCompletionRequestNtB1J_22ChatCompletionResponseEB9_
FNDA:7,_RNCINvMNtNtNtCsfsPcvtvSBg5_13rag_toolchain7clients7open_ai12open_ai_coreNtB5_16OpenAIHttpClient12send_requestNtNtB5_18open_ai_core_tests11RequestBodyB1J_E0Bb_
FNDA:2,_RNCINvMNtNtNtCsfsPcvtvSBg5_13rag_toolchain7clients7open_ai12open_ai_coreNtB5_16OpenAIHttpClient12send_requestNtNtNtB7_5model10embeddings16EmbeddingRequestNtB1L_17EmbeddingResponseE0Bb_
FNDA:2,_RNCINvMNtNtNtCsfsPcvtvSBg5_13rag_toolchain7clients7open_ai12open_ai_coreNtB5_16OpenAIHttpClient12send_requestNtNtNtB7_5model10embeddings21BatchEmbeddingRequestNtB1L_17EmbeddingResponseE0Bb_
FNDA:2,_RNCINvMNtNtNtCsfsPcvtvSBg5_13rag_toolchain7clients7open_ai12open_ai_coreNtB5_16OpenAIHttpClient12send_requestNtNtNtB7_5model16chat_completions21ChatCompletionRequestNtB1L_22ChatCompletionResponseE0Bb_
FNDA:0,_RNCNCINvMNtNtNtCsfsPcvtvSBg5_13rag_toolchain7clients7open_ai12open_ai_coreNtB7_16OpenAIHttpClient12send_requestNtNtB7_18open_ai_core_tests11RequestBodyB1L_E00Bd_
FNDA:0,_RNCNCINvMNtNtNtCsfsPcvtvSBg5_13rag_toolchain7clients7open_ai12open_ai_coreNtB7_16OpenAIHttpClient12send_requestNtNtNtB9_5model10embeddings16EmbeddingRequestNtB1N_17EmbeddingResponseE00Bd_
FNDA:0,_RNCNCINvMNtNtNtCsfsPcvtvSBg5_13rag_toolchain7clients7open_ai12open_ai_coreNtB7_16OpenAIHttpClient12send_requestNtNtNtB9_5model10embeddings21BatchEmbeddingRequestNtB1N_17EmbeddingResponseE00Bd_
FNDA:0,_RNCNCINvMNtNtNtCsfsPcvtvSBg5_13rag_toolchain7clients7open_ai12open_ai_coreNtB7_16OpenAIHttpClient12send_requestNtNtNtB9_5model16chat_completions21ChatCompletionRequestNtB1N_22ChatCompletionResponseE00Bd_
FNDA:0,_RNCNCINvMNtNtNtCsfsPcvtvSBg5_13rag_toolchain7clients7open_ai12open_ai_coreNtB7_16OpenAIHttpClient12send_requestNtNtB7_18open_ai_core_tests11RequestBodyB1L_E0s_0Bd_
FNDA:0,_RNCNCINvMNtNtNtCsfsPcvtvSBg5_13rag_toolchain7clients7open_ai12open_ai_coreNtB7_16OpenAIHttpClient12send_requestNtNtNtB9_5model10embeddings16EmbeddingRequestNtB1N_17EmbeddingResponseE0s_0Bd_
FNDA:0,_RNCNCINvMNtNtNtCsfsPcvtvSBg5_13rag_toolchain7clients7open_ai12open_ai_coreNtB7_16OpenAIHttpClient12send_requestNtNtNtB9_5model10embeddings21BatchEmbeddingRequestNtB1N_17EmbeddingResponseE0s_0Bd_
FNDA:0,_RNCNCINvMNtNtNtCsfsPcvtvSBg5_13rag_toolchain7clients7open_ai12open_ai_coreNtB7_16OpenAIHttpClient12send_requestNtNtNtB9_5model16chat_completions21ChatCompletionRequestNtB1N_22ChatCompletionResponseE0s_0Bd_
FNDA:0,_RNCNCINvMNtNtNtCsfsPcvtvSBg5_13rag_toolchain7clients7open_ai12open_ai_coreNtB7_16OpenAIHttpClient12send_requestNtNtB7_18open_ai_core_tests11RequestBodyB1L_E0s0_0Bd_
FNDA:0,_RNCNCINvMNtNtNtCsfsPcvtvSBg5_13rag_toolchain7clients7open_ai12open_ai_coreNtB7_16OpenAIHttpClient12send_requestNtNtNtB9_5model10embeddings16EmbeddingRequestNtB1N_17EmbeddingResponseE0s0_0Bd_
FNDA:0,_RNCNCINvMNtNtNtCsfsPcvtvSBg5_13rag_toolchain7clients7open_ai12open_ai_coreNtB7_16OpenAIHttpClient12send_requestNtNtNtB9_5model10embeddings21BatchEmbeddingRequestNtB1N_17EmbeddingResponseE0s0_0Bd_
FNDA:0,_RNCNCINvMNtNtNtCsfsPcvtvSBg5_13rag_toolchain7clients7open_ai12open_ai_coreNtB7_16OpenAIHttpClient12send_requestNtNtNtB9_5model16chat_completions21ChatCompletionRequestNtB1N_22ChatCompletionResponseE0s0_0Bd_
FNDA:7,_RINvMNtNtNtCsfsPcvtvSBg5_13rag_toolchain7clients7open_ai12open_ai_coreNtB3_16OpenAIHttpClient14build_requesetNtNtB3_18open_ai_core_tests11RequestBodyEB9_
FNDA:2,_RINvMNtNtNtCsfsPcvtvSBg5_13rag_toolchain7clients7open_ai12open_ai_coreNtB3_16OpenAIHttpClient14build_requesetNtNtNtB5_5model10embeddings16EmbeddingRequestEB9_
FNDA:2,_RINvMNtNtNtCsfsPcvtvSBg5_13rag_toolchain7clients7open_ai12open_ai_coreNtB3_16OpenAIHttpClient14build_requesetNtNtNtB5_5model10embeddings21BatchEmbeddingRequestEB9_
FNDA:2,_RINvMNtNtNtCsfsPcvtvSBg5_13rag_toolchain7clients7open_ai12open_ai_coreNtB3_16OpenAIHttpClient14build_requesetNtNtNtB5_5model16chat_completions21ChatCompletionRequestEB9_
FNDA:10,_RNCNvMNtNtNtCsfsPcvtvSBg5_13rag_toolchain7clients7open_ai12open_ai_coreNtB4_16OpenAIHttpClient21handle_error_response0Ba_
FNDA:11,_RNvMNtNtNtCsfsPcvtvSBg5_13rag_toolchain7clients7open_ai12open_ai_coreNtB2_16OpenAIHttpClient7try_new
FNDA:10,_RNvMNtNtNtCsfsPcvtvSBg5_13rag_toolchain7clients7open_ai12open_ai_coreNtB2_16OpenAIHttpClient21handle_error_response
FNDA:6,_RNvNtNtNtNtCsfsPcvtvSBg5_13rag_toolchain7clients7open_ai12open_ai_core18open_ai_core_tests21assert_status_mapping
FNDA:7,_RNvNtNtNtNtCsfsPcvtvSBg5_13rag_toolchain7clients7open_ai12open_ai_core18open_ai_core_tests19with_mocked_request
FNDA:7,_RNvNtNtNtNtCsfsPcvtvSBg5_13rag_toolchain7clients7open_ai12open_ai_core18open_ai_core_tests18with_mocked_client
FNDA:1,_RNvNtNtNtNtCsfsPcvtvSBg5_13rag_toolchain7clients7open_ai12open_ai_core18open_ai_core_testss_25status_400_maps_correctly
FNDA:1,_RNvNtNtNtNtCsfsPcvtvSBg5_13rag_toolchain7clients7open_ai12open_ai_core18open_ai_core_testss_25status_401_maps_correctly
FNDA:1,_RNvNtNtNtNtCsfsPcvtvSBg5_13rag_toolchain7clients7open_ai12open_ai_core18open_ai_core_testss_25status_429_maps_correctly
FNDA:1,_RNvNtNtNtNtCsfsPcvtvSBg5_13rag_toolchain7clients7open_ai12open_ai_core18open_ai_core_testss_25status_500_maps_correctly
FNDA:1,_RNvNtNtNtNtCsfsPcvtvSBg5_13rag_toolchain7clients7open_ai12open_ai_core18open_ai_core_testss_25status_503_maps_correctly
FNDA:1,_RNvNtNtNtNtCsfsPcvtvSBg5_13rag_toolchain7clients7open_ai12open_ai_core18open_ai_core_testss_24undefined_maps_correctly
FNDA:1,_RNvNtNtNtNtCsfsPcvtvSBg5_13rag_toolchain7clients7open_ai12open_ai_core18open_ai_core_testss_48error_deserializing_response_body_maps_correctly
FNDA:0,_RNvXs0_NvXNvNtNtNtNtCsfsPcvtvSBg5_13rag_toolchain7clients7open_ai12open_ai_core18open_ai_core_testss_1__NtBa_11RequestBodyNtNtCseHmADR0RVY9_5serde2de11Deserialize11deserializeNtB5_9___VisitorNtB1Y_7Visitor9expecting
FNDA:6,_RNCNvNtNtNtNtCsfsPcvtvSBg5_13rag_toolchain7clients7open_ai12open_ai_core18open_ai_core_tests21assert_status_mapping0Bb_
FNDA:7,_RNCNvNtNtNtNtCsfsPcvtvSBg5_13rag_toolchain7clients7open_ai12open_ai_core18open_ai_core_tests18with_mocked_client0Bb_
FNDA:1,_RNCNvNtNtNtNtCsfsPcvtvSBg5_13rag_toolchain7clients7open_ai12open_ai_core18open_ai_core_testss_25status_400_maps_correctly0Bb_
FNDA:1,_RNCNvNtNtNtNtCsfsPcvtvSBg5_13rag_toolchain7clients7open_ai12open_ai_core18open_ai_core_testss_25status_401_maps_correctly0Bb_
FNDA:1,_RNCNvNtNtNtNtCsfsPcvtvSBg5_13rag_toolchain7clients7open_ai12open_ai_core18open_ai_core_testss_25status_429_maps_correctly0Bb_
FNDA:1,_RNCNvNtNtNtNtCsfsPcvtvSBg5_13rag_toolchain7clients7open_ai12open_ai_core18open_ai_core_testss_25status_500_maps_correctly0Bb_
FNDA:1,_RNCNvNtNtNtNtCsfsPcvtvSBg5_13rag_toolchain7clients7open_ai12open_ai_core18open_ai_core_testss_25status_503_maps_correctly0Bb_
FNDA:1,_RNCNvNtNtNtNtCsfsPcvtvSBg5_13rag_toolchain7clients7open_ai12open_ai_core18open_ai_core_testss_24undefined_maps_correctly0Bb_
FNDA:1,_RNCNvNtNtNtNtCsfsPcvtvSBg5_13rag_toolchain7clients7open_ai12open_ai_core18open_ai_core_testss_48error_deserializing_response_body_maps_correctly0Bb_
FNDA:0,_RINvXNvXNvNtNtNtNtCsfsPcvtvSBg5_13rag_toolchain7clients7open_ai12open_ai_core18open_ai_core_testss_1__NtB8_11RequestBodyNtNtCseHmADR0RVY9_5serde2de11Deserialize11deserializeNtB3_14___FieldVisitorNtB1W_7Visitor9visit_strNtNtCse05LGF5xr5W_10serde_json5error5ErrorEBg_
FNDA:0,_RINvXs_NvXNvNtNtNtNtCsfsPcvtvSBg5_13rag_toolchain7clients7open_ai12open_ai_core18open_ai_core_testss_1__NtBa_11RequestBodyNtNtCseHmADR0RVY9_5serde2de11Deserialize11deserializeNtB5_7___FieldB1W_11deserializeINtNtCse05LGF5xr5W_10serde_json2de6MapKeyNtNtB3n_4read7StrReadEEBi_
FNDA:0,_RINvXs0_NvXNvNtNtNtNtCsfsPcvtvSBg5_13rag_toolchain7clients7open_ai12open_ai_core18open_ai_core_testss_1__NtBb_11RequestBodyNtNtCseHmADR0RVY9_5serde2de11Deserialize11deserializeNtB6_9___VisitorNtB1Z_7Visitor9visit_seqINtNtCse05LGF5xr5W_10serde_json2de9SeqAccessNtNtB3x_4read7StrReadEEBj_
FNDA:0,_RINvXs0_NvXNvNtNtNtNtCsfsPcvtvSBg5_13rag_toolchain7clients7open_ai12open_ai_core18open_ai_core_testss_1__NtBb_11RequestBodyNtNtCseHmADR0RVY9_5serde2de11Deserialize11deserializeNtB6_9___VisitorNtB1Z_7Visitor9visit_mapINtNtCse05LGF5xr5W_10serde_json2de9MapAccessNtNtB3x_4read7StrReadEEBj_
FNF:32
FNH:25
DA:31,11
DA:32,11
DA:33,11
DA:34,11
DA:35,0
DA:37,11
DA:38,11
DA:39,11
DA:57,13
DA:58,13
DA:59,13
DA:60,13
DA:61,13
DA:62,13
DA:63,13
DA:64,13
DA:65,39
DA:66,13
DA:68,13
DA:69,13
DA:70,13
DA:71,10
DA:72,10
DA:73,3
DA:75,3
DA:76,3
DA:77,0
DA:78,3
DA:80,3
DA:81,0
DA:82,3
DA:83,13
DA:89,0
DA:90,0
DA:91,0
DA:92,0
DA:93,0
DA:94,0
DA:95,0
DA:96,0
DA:97,0
DA:98,0
DA:99,0
DA:100,0
DA:101,0
DA:102,0
DA:107,13
DA:108,13
DA:109,13
DA:110,13
DA:111,13
DA:112,13
DA:113,13
DA:114,13
DA:115,13
DA:116,13
DA:117,13
DA:128,10
DA:129,10
DA:130,10
DA:131,10
DA:132,10
DA:133,0
DA:136,10
DA:137,9
DA:138,1
DA:139,1
DA:142,9
DA:143,3
DA:144,2
DA:145,1
DA:146,1
DA:147,1
DA:148,1
DA:150,10
DA:171,1
DA:172,1
DA:173,1
DA:174,3
DA:175,1
DA:178,1
DA:179,1
DA:180,1
DA:181,3
DA:182,1
DA:185,1
DA:186,1
DA:187,1
DA:188,3
DA:189,1
DA:192,1
DA:193,1
DA:194,1
DA:195,3
DA:196,1
DA:199,1
DA:200,1
DA:201,1
DA:202,3
DA:203,1
DA:206,1
DA:207,1
DA:208,3
DA:209,1
DA:212,1
DA:213,1
DA:214,1
DA:215,1
DA:216,1
DA:217,1
DA:218,1
DA:219,1
DA:220,1
DA:221,1
DA:222,3
DA:223,1
DA:224,1
DA:225,1
DA:226,1
DA:227,1
DA:228,1
DA:229,1
DA:230,1
DA:231,1
DA:234,6
DA:235,6
DA:236,6
DA:237,6
DA:238,6
DA:239,6
DA:240,6
DA:241,6
DA:242,18
DA:243,6
DA:244,6
DA:245,6
DA:246,6
DA:250,7
DA:251,7
DA:252,7
DA:253,7
DA:254,7
DA:255,7
DA:256,7
DA:257,7
DA:258,7
DA:259,7
DA:260,7
DA:261,7
DA:265,7
DA:266,7
DA:267,7
DA:268,7
DA:269,7
DA:270,7
DA:272,0
BRF:0
BRH:0
LF:208
LH:183
end_of_record
SF:/root/project/rust-rag-toolchain/rag-toolchain/src/clients/open_ai/open_ai_embeddings.rs
FN:257,_RNCNvNtNtNtNtCsfsPcvtvSBg5_13rag_toolchain7clients7open_ai18open_ai_embeddings22embedding_client_tests18with_mocked_client0Bb_
FN:191,_RNCNvNtNtNtNtCsfsPcvtvSBg5_13rag_toolchain7clients7open_ai18open_ai_embeddings22embedding_client_testss_30test_correct_response_succeeds0Bb_
FN:218,_RNCNvNtNtNtNtCsfsPcvtvSBg5_13rag_toolchain7clients7open_ai18open_ai_embeddings22embedding_client_testss_28test_400_gives_correct_error0Bb_
FN:49,_RNvMNtNtNtCsfsPcvtvSBg5_13rag_toolchain7clients7open_ai18open_ai_embeddingsNtB2_21OpenAIEmbeddingClient7try_new
FN:70,_RNvMNtNtNtCsfsPcvtvSBg5_13rag_toolchain7clients7open_ai18open_ai_embeddingsNtB2_21OpenAIEmbeddingClient33handle_embedding_success_response
FN:100,_RNvXs_NtNtNtCsfsPcvtvSBg5_13rag_toolchain7clients7open_ai18open_ai_embeddingsNtB4_21OpenAIEmbeddingClientNtNtB8_6traits20AsyncEmbeddingClient19generate_embeddings
FN:127,_RNvXs_NtNtNtCsfsPcvtvSBg5_13rag_toolchain7clients7open_ai18open_ai_embeddingsNtB4_21OpenAIEmbeddingClientNtNtB8_6traits20AsyncEmbeddingClient18generate_embedding
FN:79,_RNCNvMNtNtNtCsfsPcvtvSBg5_13rag_toolchain7clients7open_ai18open_ai_embeddingsNtB4_21OpenAIEmbeddingClient33handle_embedding_success_response0Ba_
FN:100,_RNCNvXs_NtNtNtCsfsPcvtvSBg5_13rag_toolchain7clients7open_ai18open_ai_embeddingsNtB6_21OpenAIEmbeddingClientNtNtBa_6traits20AsyncEmbeddingClient19generate_embeddings0Bc_
FN:103,_RNCNCNvXs_NtNtNtCsfsPcvtvSBg5_13rag_toolchain7clients7open_ai18open_ai_embeddingsNtB8_21OpenAIEmbeddingClientNtNtBc_6traits20AsyncEmbeddingClient19generate_embeddings00Be_
FN:127,_RNCNvXs_NtNtNtCsfsPcvtvSBg5_13rag_toolchain7clients7open_ai18open_ai_embeddingsNtB6_21OpenAIEmbeddingClientNtNtBa_6traits20AsyncEmbeddingClient18generate_embedding0Bc_
FN:242,_RNvNtNtNtNtCsfsPcvtvSBg5_13rag_toolchain7clients7open_ai18open_ai_embeddings22embedding_client_tests19with_mocked_request
FN:257,_RNvNtNtNtNtCsfsPcvtvSBg5_13rag_toolchain7clients7open_ai18open_ai_embeddings22embedding_client_tests18with_mocked_client
FN:191,_RNvNtNtNtNtCsfsPcvtvSBg5_13rag_toolchain7clients7open_ai18open_ai_embeddings22embedding_client_testss_30test_correct_response_succeeds
FN:218,_RNvNtNtNtNtCsfsPcvtvSBg5_13rag_toolchain7clients7open_ai18open_ai_embeddings22embedding_client_testss_28test_400_gives_correct_error
FNDA:2,_RNCNvNtNtNtNtCsfsPcvtvSBg5_13rag_toolchain7clients7open_ai18open_ai_embeddings22embedding_client_tests18with_mocked_client0Bb_
FNDA:1,_RNCNvNtNtNtNtCsfsPcvtvSBg5_13rag_toolchain7clients7open_ai18open_ai_embeddings22embedding_client_testss_30test_correct_response_succeeds0Bb_
FNDA:1,_RNCNvNtNtNtNtCsfsPcvtvSBg5_13rag_toolchain7clients7open_ai18open_ai_embeddings22embedding_client_testss_28test_400_gives_correct_error0Bb_
FNDA:2,_RNvMNtNtNtCsfsPcvtvSBg5_13rag_toolchain7clients7open_ai18open_ai_embeddingsNtB2_21OpenAIEmbeddingClient7try_new
FNDA:2,_RNvMNtNtNtCsfsPcvtvSBg5_13rag_toolchain7clients7open_ai18open_ai_embeddingsNtB2_21OpenAIEmbeddingClient33handle_embedding_success_response
FNDA:2,_RNvXs_NtNtNtCsfsPcvtvSBg5_13rag_toolchain7clients7open_ai18open_ai_embeddingsNtB4_21OpenAIEmbeddingClientNtNtB8_6traits20AsyncEmbeddingClient19generate_embeddings
FNDA:2,_RNvXs_NtNtNtCsfsPcvtvSBg5_13rag_toolchain7clients7open_ai18open_ai_embeddingsNtB4_21OpenAIEmbeddingClientNtNtB8_6traits20AsyncEmbeddingClient18generate_embedding
FNDA:3,_RNCNvMNtNtNtCsfsPcvtvSBg5_13rag_toolchain7clients7open_ai18open_ai_embeddingsNtB4_21OpenAIEmbeddingClient33handle_embedding_success_response0Ba_
FNDA:2,_RNCNvXs_NtNtNtCsfsPcvtvSBg5_13rag_toolchain7clients7open_ai18open_ai_embeddingsNtB6_21OpenAIEmbeddingClientNtNtBa_6traits20AsyncEmbeddingClient19generate_embeddings0Bc_
FNDA:4,_RNCNCNvXs_NtNtNtCsfsPcvtvSBg5_13rag_toolchain7clients7open_ai18open_ai_embeddingsNtB8_21OpenAIEmbeddingClientNtNtBc_6traits20AsyncEmbeddingClient19generate_embeddings00Be_
FNDA:2,_RNCNvXs_NtNtNtCsfsPcvtvSBg5_13rag_toolchain7clients7open_ai18open_ai_embeddingsNtB6_21OpenAIEmbeddingClientNtNtBa_6traits20AsyncEmbeddingClient18generate_embedding0Bc_
FNDA:2,_RNvNtNtNtNtCsfsPcvtvSBg5_13rag_toolchain7clients7open_ai18open_ai_embeddings22embedding_client_tests19with_mocked_request
FNDA:2,_RNvNtNtNtNtCsfsPcvtvSBg5_13rag_toolchain7clients7open_ai18open_ai_embeddings22embedding_client_tests18with_mocked_client
FNDA:1,_RNvNtNtNtNtCsfsPcvtvSBg5_13rag_toolchain7clients7open_ai18open_ai_embeddings22embedding_client_testss_30test_correct_response_succeeds
FNDA:1,_RNvNtNtNtNtCsfsPcvtvSBg5_13rag_toolchain7clients7open_ai18open_ai_embeddings22embedding_client_testss_28test_400_gives_correct_error
FNF:15
FNH:15
DA:49,2
DA:50,2
DA:51,2
DA:52,2
DA:53,2
DA:54,2
DA:55,2
DA:56,2
DA:57,2
DA:58,2
DA:70,2
DA:71,2
DA:72,2
DA:73,2
DA:74,2
DA:75,2
DA:76,2
DA:77,2
DA:78,2
DA:79,3
DA:80,2
DA:81,2
DA:100,2
DA:101,2
DA:102,2
DA:103,4
DA:104,2
DA:105,2
DA:106,2
DA:107,2
DA:108,2
DA:109,2
DA:111,6
DA:112,1
DA:113,2
DA:127,2
DA:128,2
DA:129,2
DA:130,2
DA:131,2
DA:132,6
DA:133,1
DA:134,2
DA:191,1
DA:192,1
DA:193,1
DA:194,1
DA:195,1
DA:196,1
DA:197,1
DA:198,1
DA:199,1
DA:200,1
DA:201,1
DA:202,3
DA:203,1
DA:204,2
DA:205,2
DA:206,2
DA:207,1
DA:208,1
DA:209,1
DA:210,1
DA:211,1
DA:212,3
DA:213,1
DA:214,1
DA:215,1
DA:218,1
DA:219,1
DA:220,1
DA:221,1
DA:222,1
DA:223,1
DA:224,1
DA:225,1
DA:226,1
DA:227,1
DA:228,1
DA:229,1
DA:230,1
DA:231,3
DA:232,1
DA:233,1
DA:234,1
DA:235,1
DA:236,3
DA:237,1
DA:238,1
DA:242,2
DA:243,2
DA:244,2
DA:245,2
DA:246,2
DA:247,2
DA:248,2
DA:249,2
DA:250,2
DA:251,2
DA:252,2
DA:253,2
DA:257,2
DA:258,2
DA:259,2
DA:260,2
DA:261,2
DA:262,2
DA:263,2
DA:264,2
DA:265,2
BRF:0
BRH:0
LF:154
LH:154
end_of_record
SF:/root/project/rust-rag-toolchain/rag-toolchain/src/clients/traits.rs
FN:66,_RNvXs5_NtNtCsfsPcvtvSBg5_13rag_toolchain7clients6traitsNtB5_19MockAsyncChatClientNtNtCsaYZPK01V26L_4core7default7Default7default
FN:66,_RNvXs6_NtNtCsfsPcvtvSBg5_13rag_toolchain7clients6traitsNtB5_35MockAsyncChatClient_AsyncChatClientNtNtCsaYZPK01V26L_4core7default7Default7default
FN:66,_RNvMs8_NtNtCsfsPcvtvSBg5_13rag_toolchain7clients6traitsNtB5_19MockAsyncChatClient3new
FN:66,_RNvXs9_NtNtCsfsPcvtvSBg5_13rag_toolchain7clients6traitsNtB5_19MockAsyncChatClientNtB5_15AsyncChatClient6invoke
FN:66,_RNvMsa_NtNtCsfsPcvtvSBg5_13rag_toolchain7clients6traitsNtB5_19MockAsyncChatClient13expect_invoke
FN:78,_RNvXsb_NtNtCsfsPcvtvSBg5_13rag_toolchain7clients6traitsNtB5_27MockAsyncStreamedChatClientNtNtCsaYZPK01V26L_4core7default7Default7default
FN:78,_RNvXsc_NtNtCsfsPcvtvSBg5_13rag_toolchain7clients6traitsNtB5_51MockAsyncStreamedChatClient_AsyncStreamedChatClientNtNtCsaYZPK01V26L_4core7default7Default7default
FN:78,_RNvMse_NtNtCsfsPcvtvSBg5_13rag_toolchain7clients6traitsNtB5_27MockAsyncStreamedChatClient3new
FN:78,_RNvXsf_NtNtCsfsPcvtvSBg5_13rag_toolchain7clients6traitsNtB5_27MockAsyncStreamedChatClientNtB5_23AsyncStreamedChatClient13invoke_stream
FN:78,_RNvMsg_NtNtCsfsPcvtvSBg5_13rag_toolchain7clients6traitsNtB5_27MockAsyncStreamedChatClient20expect_invoke_stream
FN:92,_RNvXsh_NtNtCsfsPcvtvSBg5_13rag_toolchain7clients6traitsNtB5_24MockChatCompletionStreamNtNtCsaYZPK01V26L_4core7default7Default7default
FN:92,_RNvXsi_NtNtCsfsPcvtvSBg5_13rag_toolchain7clients6traitsNtB5_45MockChatCompletionStream_ChatCompletionStreamNtNtCsaYZPK01V26L_4core7default7Default7default
FN:92,_RNvMsk_NtNtCsfsPcvtvSBg5_13rag_toolchain7clients6traitsNtB5_24MockChatCompletionStream3new
FN:92,_RNvXsl_NtNtCsfsPcvtvSBg5_13rag_toolchain7clients6traitsNtB5_24MockChatCompletionStreamNtB5_20ChatCompletionStream4next
FN:92,_RNvMsm_NtNtCsfsPcvtvSBg5_13rag_toolchain7clients6traitsNtB5_24MockChatCompletionStream11expect_next
FN:54,_RNvXs_NtNtCsfsPcvtvSBg5_13rag_toolchain7clients6traitsNtB4_24MockAsyncEmbeddingClientNtNtCsaYZPK01V26L_4core7default7Default7default
FN:54,_RNvMNtNtNtNtCsfsPcvtvSBg5_13rag_toolchain7clients6traits52___mock_MockAsyncEmbeddingClient_AsyncEmbeddingClient20___generate_embeddingNtB2_5Rfunc8call_mut
FN:54,_RNvXs_NtNtNtNtCsfsPcvtvSBg5_13rag_toolchain7clients6traits52___mock_MockAsyncEmbeddingClient_AsyncEmbeddingClient20___generate_embeddingNtB4_5RfuncNtNtCsaYZPK01V26L_4core7default7Default7default
FN:54,_RNvMs0_NtNtNtNtCsfsPcvtvSBg5_13rag_toolchain7clients6traits52___mock_MockAsyncEmbeddingClient_AsyncEmbeddingClient20___generate_embeddingNtB5_7Matcher7matches
FN:54,_RNCNvMs0_NtNtNtNtCsfsPcvtvSBg5_13rag_toolchain7clients6traits52___mock_MockAsyncEmbeddingClient_AsyncEmbeddingClient20___generate_embeddingNtB7_7Matcher7matches0Bf_
FN:54,_RNvXs1_NtNtNtNtCsfsPcvtvSBg5_13rag_toolchain7clients6traits52___mock_MockAsyncEmbeddingClient_AsyncEmbeddingClient20___generate_embeddingNtB5_7MatcherNtNtCsaYZPK01V26L_4core7default7Default7default
FN:54,_RNvXs2_NtNtNtNtCsfsPcvtvSBg5_13rag_toolchain7clients6traits52___mock_MockAsyncEmbeddingClient_AsyncEmbeddingClient20___generate_embeddingNtB5_7MatcherNtNtCsaYZPK01V26L_4core3fmt7Display3fmt
FN:54,_RNvXs3_NtNtNtNtCsfsPcvtvSBg5_13rag_toolchain7clients6traits52___mock_MockAsyncEmbeddingClient_AsyncEmbeddingClient20___generate_embeddingNtB5_6CommonNtNtCsaYZPK01V26L_4core7default7Default7default
FN:64,_RNvMs4_NtNtNtNtCsfsPcvtvSBg5_13rag_toolchain7clients6traits52___mock_MockAsyncEmbeddingClient_AsyncEmbeddingClient20___generate_embeddingNtB5_6Common4call
FN:54,_RNCNvMs4_NtNtNtNtCsfsPcvtvSBg5_13rag_toolchain7clients6traits52___mock_MockAsyncEmbeddingClient_AsyncEmbeddingClient20___generate_embeddingNtB7_6Common4call0Bf_
FN:54,_RNvMs4_NtNtNtNtCsfsPcvtvSBg5_13rag_toolchain7clients6traits52___mock_MockAsyncEmbeddingClient_AsyncEmbeddingClient20___generate_embeddingNtB5_6Common11in_sequence
FN:54,_RNvMs4_NtNtNtNtCsfsPcvtvSBg5_13rag_toolchain7clients6traits52___mock_MockAsyncEmbeddingClient_AsyncEmbeddingClient20___generate_embeddingNtB5_6Common7is_done
FN:54,_RNvMs4_NtNtNtNtCsfsPcvtvSBg5_13rag_toolchain7clients6traits52___mock_MockAsyncEmbeddingClient_AsyncEmbeddingClient20___generate_embeddingNtB5_6Common7matches
FN:54,_RNvMs4_NtNtNtNtCsfsPcvtvSBg5_13rag_toolchain7clients6traits52___mock_MockAsyncEmbeddingClient_AsyncEmbeddingClient20___generate_embeddingNtB5_6Common5never
FN:54,_RNvMs4_NtNtNtNtCsfsPcvtvSBg5_13rag_toolchain7clients6traits52___mock_MockAsyncEmbeddingClient_AsyncEmbeddingClient20___generate_embeddingNtB5_6Common16satisfy_sequence
FN:54,_RINvMs4_NtNtNtNtCsfsPcvtvSBg5_13rag_toolchain7clients6traits52___mock_MockAsyncEmbeddingClient_AsyncEmbeddingClient20___generate_embeddingNtB6_6Common5timespEBe_
FN:54,_RINvMs4_NtNtNtNtCsfsPcvtvSBg5_13rag_toolchain7clients6traits52___mock_MockAsyncEmbeddingClient_AsyncEmbeddingClient20___generate_embeddingNtB6_6Common4withpEBe_
FN:54,_RINvMs4_NtNtNtNtCsfsPcvtvSBg5_13rag_toolchain7clients6traits52___mock_MockAsyncEmbeddingClient_AsyncEmbeddingClient20___generate_embeddingNtB6_6Common5withfpEBe_
FN:54,_RINvMs4_NtNtNtNtCsfsPcvtvSBg5_13rag_toolchain7clients6traits52___mock_MockAsyncEmbeddingClient_AsyncEmbeddingClient20___generate_embeddingNtB6_6Common8withf_stpEBe_
FN:54,_RNvMs4_NtNtNtNtCsfsPcvtvSBg5_13rag_toolchain7clients6traits52___mock_MockAsyncEmbeddingClient_AsyncEmbeddingClient20___generate_embeddingNtB5_6Common15verify_sequence
FN:54,_RNvXs5_NtNtNtNtCsfsPcvtvSBg5_13rag_toolchain7clients6traits52___mock_MockAsyncEmbeddingClient_AsyncEmbeddingClient20___generate_embeddingNtB5_6CommonNtNtNtCsaYZPK01V26L_4core3ops4drop4Drop4drop
FN:64,_RNvMs6_NtNtNtNtCsfsPcvtvSBg5_13rag_toolchain7clients6traits52___mock_MockAsyncEmbeddingClient_AsyncEmbeddingClient20___generate_embeddingNtB5_11Expectation4call
FN:54,_RNCNvMs6_NtNtNtNtCsfsPcvtvSBg5_13rag_toolchain7clients6traits52___mock_MockAsyncEmbeddingClient_AsyncEmbeddingClient20___generate_embeddingNtB7_11Expectation4call0Bf_
FN:64,_RINvMs6_NtNtNtNtCsfsPcvtvSBg5_13rag_toolchain7clients6traits52___mock_MockAsyncEmbeddingClient_AsyncEmbeddingClient20___generate_embeddingNtB6_11Expectation12return_constpEBe_
FN:54,_RNCINvMs6_NtNtNtNtCsfsPcvtvSBg5_13rag_toolchain7clients6traits52___mock_MockAsyncEmbeddingClient_AsyncEmbeddingClient20___generate_embeddingNtB8_11Expectation12return_constpE0Bg_
FN:64,_RINvMs6_NtNtNtNtCsfsPcvtvSBg5_13rag_toolchain7clients6traits52___mock_MockAsyncEmbeddingClient_AsyncEmbeddingClient20___generate_embeddingNtB6_11Expectation15return_const_stpEBe_
FN:54,_RNCINvMs6_NtNtNtNtCsfsPcvtvSBg5_13rag_toolchain7clients6traits52___mock_MockAsyncEmbeddingClient_AsyncEmbeddingClient20___generate_embeddingNtB8_11Expectation15return_const_stpE0Bg_
FN:54,_RINvMs6_NtNtNtNtCsfsPcvtvSBg5_13rag_toolchain7clients6traits52___mock_MockAsyncEmbeddingClient_AsyncEmbeddingClient20___generate_embeddingNtB6_11Expectation11return_oncepEBe_
FN:54,_RINvMs6_NtNtNtNtCsfsPcvtvSBg5_13rag_toolchain7clients6traits52___mock_MockAsyncEmbeddingClient_AsyncEmbeddingClient20___generate_embeddingNtB6_11Expectation14return_once_stpEBe_
FN:54,_RINvMs6_NtNtNtNtCsfsPcvtvSBg5_13rag_toolchain7clients6traits52___mock_MockAsyncEmbeddingClient_AsyncEmbeddingClient20___generate_embeddingNtB6_11Expectation9returningpEBe_
FN:54,_RINvMs6_NtNtNtNtCsfsPcvtvSBg5_13rag_toolchain7clients6traits52___mock_MockAsyncEmbeddingClient_AsyncEmbeddingClient20___generate_embeddingNtB6_11Expectation12returning_stpEBe_
FN:54,_RNvMs6_NtNtNtNtCsfsPcvtvSBg5_13rag_toolchain7clients6traits52___mock_MockAsyncEmbeddingClient_AsyncEmbeddingClient20___generate_embeddingNtB5_11Expectation11in_sequence
FN:54,_RNvMs6_NtNtNtNtCsfsPcvtvSBg5_13rag_toolchain7clients6traits52___mock_MockAsyncEmbeddingClient_AsyncEmbeddingClient20___generate_embeddingNtB5_11Expectation7is_done
FN:54,_RNvMs6_NtNtNtNtCsfsPcvtvSBg5_13rag_toolchain7clients6traits52___mock_MockAsyncEmbeddingClient_AsyncEmbeddingClient20___generate_embeddingNtB5_11Expectation7matches
FN:54,_RNvMs6_NtNtNtNtCsfsPcvtvSBg5_13rag_toolchain7clients6traits52___mock_MockAsyncEmbeddingClient_AsyncEmbeddingClient20___generate_embeddingNtB5_11Expectation5never
FN:54,_RNvMs6_NtNtNtNtCsfsPcvtvSBg5_13rag_toolchain7clients6traits52___mock_MockAsyncEmbeddingClient_AsyncEmbeddingClient20___generate_embeddingNtB5_11Expectation3new
FN:54,_RNvMs6_NtNtNtNtCsfsPcvtvSBg5_13rag_toolchain7clients6traits52___mock_MockAsyncEmbeddingClient_AsyncEmbeddingClient20___generate_embeddingNtB5_11Expectation4once
FN:54,_RINvMs6_NtNtNtNtCsfsPcvtvSBg5_13rag_toolchain7clients6traits52___mock_MockAsyncEmbeddingClient_AsyncEmbeddingClient20___generate_embeddingNtB6_11Expectation5timespEBe_
FN:54,_RINvMs6_NtNtNtNtCsfsPcvtvSBg5_13rag_toolchain7clients6traits52___mock_MockAsyncEmbeddingClient_AsyncEmbeddingClient20___generate_embeddingNtB6_11Expectation4withpEBe_
FN:54,_RINvMs6_NtNtNtNtCsfsPcvtvSBg5_13rag_toolchain7clients6traits52___mock_MockAsyncEmbeddingClient_AsyncEmbeddingClient20___generate_embeddingNtB6_11Expectation5withfpEBe_
FN:54,_RINvMs6_NtNtNtNtCsfsPcvtvSBg5_13rag_toolchain7clients6traits52___mock_MockAsyncEmbeddingClient_AsyncEmbeddingClient20___generate_embeddingNtB6_11Expectation8withf_stpEBe_
FN:54,_RNvXs7_NtNtNtNtCsfsPcvtvSBg5_13rag_toolchain7clients6traits52___mock_MockAsyncEmbeddingClient_AsyncEmbeddingClient20___generate_embeddingNtB5_11ExpectationNtNtCsaYZPK01V26L_4core7default7Default7default
FN:54,_RNvMs8_NtNtNtNtCsfsPcvtvSBg5_13rag_toolchain7clients6traits52___mock_MockAsyncEmbeddingClient_AsyncEmbeddingClient20___generate_embeddingNtB5_12Expectations10checkpoint
FN:54,_RNvMs8_NtNtNtNtCsfsPcvtvSBg5_13rag_toolchain7clients6traits52___mock_MockAsyncEmbeddingClient_AsyncEmbeddingClient20___generate_embeddingNtB5_12Expectations6expect
FN:54,_RNvMs8_NtNtNtNtCsfsPcvtvSBg5_13rag_toolchain7clients6traits52___mock_MockAsyncEmbeddingClient_AsyncEmbeddingClient20___generate_embeddingNtB5_12Expectations3new
FN:54,_RNvXs9_NtNtNtNtCsfsPcvtvSBg5_13rag_toolchain7clients6traits52___mock_MockAsyncEmbeddingClient_AsyncEmbeddingClient20___generate_embeddingNtB5_12ExpectationsNtNtCsaYZPK01V26L_4core7default7Default7default
FN:64,_RNvMsa_NtNtNtNtCsfsPcvtvSBg5_13rag_toolchain7clients6traits52___mock_MockAsyncEmbeddingClient_AsyncEmbeddingClient20___generate_embeddingNtB5_12Expectations4call
FN:54,_RNCNvMsa_NtNtNtNtCsfsPcvtvSBg5_13rag_toolchain7clients6traits52___mock_MockAsyncEmbeddingClient_AsyncEmbeddingClient20___generate_embeddingNtB7_12Expectations4call0Bf_
FN:54,_RNCNvMsa_NtNtNtNtCsfsPcvtvSBg5_13rag_toolchain7clients6traits52___mock_MockAsyncEmbeddingClient_AsyncEmbeddingClient20___generate_embeddingNtB7_12Expectations4calls_0Bf_
FN:54,_RNvMNtNtNtNtCsfsPcvtvSBg5_13rag_toolchain7clients6traits52___mock_MockAsyncEmbeddingClient_AsyncEmbeddingClient21___generate_embeddingsNtB2_5Rfunc8call_mut
FN:54,_RNvXs_NtNtNtNtCsfsPcvtvSBg5_13rag_toolchain7clients6traits52___mock_MockAsyncEmbeddingClient_AsyncEmbeddingClient21___generate_embeddingsNtB4_5RfuncNtNtCsaYZPK01V26L_4core7default7Default7default
FN:54,_RNvMs0_NtNtNtNtCsfsPcvtvSBg5_13rag_toolchain7clients6traits52___mock_MockAsyncEmbeddingClient_AsyncEmbeddingClient21___generate_embeddingsNtB5_7Matcher7matches
FN:54,_RNCNvMs0_NtNtNtNtCsfsPcvtvSBg5_13rag_toolchain7clients6traits52___mock_MockAsyncEmbeddingClient_AsyncEmbeddingClient21___generate_embeddingsNtB7_7Matcher7matches0Bf_
FN:54,_RNvXs1_NtNtNtNtCsfsPcvtvSBg5_13rag_toolchain7clients6traits52___mock_MockAsyncEmbeddingClient_AsyncEmbeddingClient21___generate_embeddingsNtB5_7MatcherNtNtCsaYZPK01V26L_4core7default7Default7default
FN:54,_RNvXs2_NtNtNtNtCsfsPcvtvSBg5_13rag_toolchain7clients6traits52___mock_MockAsyncEmbeddingClient_AsyncEmbeddingClient21___generate_embeddingsNtB5_7MatcherNtNtCsaYZPK01V26L_4core3fmt7Display3fmt
FN:54,_RNvXs3_NtNtNtNtCsfsPcvtvSBg5_13rag_toolchain7clients6traits52___mock_MockAsyncEmbeddingClient_AsyncEmbeddingClient21___generate_embeddingsNtB5_6CommonNtNtCsaYZPK01V26L_4core7default7Default7default
FN:64,_RNvMs4_NtNtNtNtCsfsPcvtvSBg5_13rag_toolchain7clients6traits52___mock_MockAsyncEmbeddingClient_AsyncEmbeddingClient21___generate_embeddingsNtB5_6Common4call
FN:54,_RNCNvMs4_NtNtNtNtCsfsPcvtvSBg5_13rag_toolchain7clients6traits52___mock_MockAsyncEmbeddingClient_AsyncEmbeddingClient21___generate_embeddingsNtB7_6Common4call0Bf_
FN:54,_RNvMs4_NtNtNtNtCsfsPcvtvSBg5_13rag_toolchain7clients6traits52___mock_MockAsyncEmbeddingClient_AsyncEmbeddingClient21___generate_embeddingsNtB5_6Common11in_sequence
FN:54,_RNvMs4_NtNtNtNtCsfsPcvtvSBg5_13rag_toolchain7clients6traits52___mock_MockAsyncEmbeddingClient_AsyncEmbeddingClient21___generate_embeddingsNtB5_6Common7is_done
FN:54,_RNvMs4_NtNtNtNtCsfsPcvtvSBg5_13rag_toolchain7clients6traits52___mock_MockAsyncEmbeddingClient_AsyncEmbeddingClient21___generate_embeddingsNtB5_6Common7matches
FN:54,_RNvMs4_NtNtNtNtCsfsPcvtvSBg5_13rag_toolchain7clients6traits52___mock_MockAsyncEmbeddingClient_AsyncEmbeddingClient21___generate_embeddingsNtB5_6Common5never
FN:54,_RNvMs4_NtNtNtNtCsfsPcvtvSBg5_13rag_toolchain7clients6traits52___mock_MockAsyncEmbeddingClient_AsyncEmbeddingClient21___generate_embeddingsNtB5_6Common16satisfy_sequence
FN:54,_RINvMs4_NtNtNtNtCsfsPcvtvSBg5_13rag_toolchain7clients6traits52___mock_MockAsyncEmbeddingClient_AsyncEmbeddingClient21___generate_embeddingsNtB6_6Common5timespEBe_
FN:54,_RINvMs4_NtNtNtNtCsfsPcvtvSBg5_13rag_toolchain7clients6traits52___mock_MockAsyncEmbeddingClient_AsyncEmbeddingClient21___generate_embeddingsNtB6_6Common4withpEBe_
FN:54,_RINvMs4_NtNtNtNtCsfsPcvtvSBg5_13rag_toolchain7clients6traits52___mock_MockAsyncEmbeddingClient_AsyncEmbeddingClient21___generate_embeddingsNtB6_6Common5withfpEBe_
FN:54,_RINvMs4_NtNtNtNtCsfsPcvtvSBg5_13rag_toolchain7clients6traits52___mock_MockAsyncEmbeddingClient_AsyncEmbeddingClient21___generate_embeddingsNtB6_6Common8withf_stpEBe_
FN:54,_RNvMs4_NtNtNtNtCsfsPcvtvSBg5_13rag_toolchain7clients6traits52___mock_MockAsyncEmbeddingClient_AsyncEmbeddingClient21___generate_embeddingsNtB5_6Common15verify_sequence
FN:54,_RNvXs5_NtNtNtNtCsfsPcvtvSBg5_13rag_toolchain7clients6traits52___mock_MockAsyncEmbeddingClient_AsyncEmbeddingClient21___generate_embeddingsNtB5_6CommonNtNtNtCsaYZPK01V26L_4core3ops4drop4Drop4drop
FN:64,_RNvMs6_NtNtNtNtCsfsPcvtvSBg5_13rag_toolchain7clients6traits52___mock_MockAsyncEmbeddingClient_AsyncEmbeddingClient21___generate_embeddingsNtB5_11Expectation4call
FN:54,_RNCNvMs6_NtNtNtNtCsfsPcvtvSBg5_13rag_toolchain7clients6traits52___mock_MockAsyncEmbeddingClient_AsyncEmbeddingClient21___generate_embeddingsNtB7_11Expectation4call0Bf_
FN:64,_RINvMs6_NtNtNtNtCsfsPcvtvSBg5_13rag_toolchain7clients6traits52___mock_MockAsyncEmbeddingClient_AsyncEmbeddingClient21___generate_embeddingsNtB6_11Expectation12return_constpEBe_
FN:54,_RNCINvMs6_NtNtNtNtCsfsPcvtvSBg5_13rag_toolchain7clients6traits52___mock_MockAsyncEmbeddingClient_AsyncEmbeddingClient21___generate_embeddingsNtB8_11Expectation12return_constpE0Bg_
FN:64,_RINvMs6_NtNtNtNtCsfsPcvtvSBg5_13rag_toolchain7clients6traits52___mock_MockAsyncEmbeddingClient_AsyncEmbeddingClient21___generate_embeddingsNtB6_11Expectation15return_const_stpEBe_
FN:54,_RNCINvMs6_NtNtNtNtCsfsPcvtvSBg5_13rag_toolchain7clients6traits52___mock_MockAsyncEmbeddingClient_AsyncEmbeddingClient21___generate_embeddingsNtB8_11Expectation15return_const_stpE0Bg_
FN:54,_RINvMs6_NtNtNtNtCsfsPcvtvSBg5_13rag_toolchain7clients6traits52___mock_MockAsyncEmbeddingClient_AsyncEmbeddingClient21___generate_embeddingsNtB6_11Expectation11return_oncepEBe_
FN:54,_RINvMs6_NtNtNtNtCsfsPcvtvSBg5_13rag_toolchain7clients6traits52___mock_MockAsyncEmbeddingClient_AsyncEmbeddingClient21___generate_embeddingsNtB6_11Expectation14return_once_stpEBe_
FN:54,_RINvMs6_NtNtNtNtCsfsPcvtvSBg5_13rag_toolchain7clients6traits52___mock_MockAsyncEmbeddingClient_AsyncEmbeddingClient21___generate_embeddingsNtB6_11Expectation9returningpEBe_
FN:54,_RINvMs6_NtNtNtNtCsfsPcvtvSBg5_13rag_toolchain7clients6traits52___mock_MockAsyncEmbeddingClient_AsyncEmbeddingClient21___generate_embeddingsNtB6_11Expectation12returning_stpEBe_
FN:54,_RNvMs6_NtNtNtNtCsfsPcvtvSBg5_13rag_toolchain7clients6traits52___mock_MockAsyncEmbeddingClient_AsyncEmbeddingClient21___generate_embeddingsNtB5_11Expectation11in_sequence
FN:54,_RNvMs6_NtNtNtNtCsfsPcvtvSBg5_13rag_toolchain7clients6traits52___mock_MockAsyncEmbeddingClient_AsyncEmbeddingClient21___generate_embeddingsNtB5_11Expectation7is_done
FN:54,_RNvMs6_NtNtNtNtCsfsPcvtvSBg5_13rag_toolchain7clients6traits52___mock_MockAsyncEmbeddingClient_AsyncEmbeddingClient21___generate_embeddingsNtB5_11Expectation7matches
FN:54,_RNvMs6_NtNtNtNtCsfsPcvtvSBg5_13rag_toolchain7clients6traits52___mock_MockAsyncEmbeddingClient_AsyncEmbeddingClient21___generate_embeddingsNtB5_11Expectation5never
FN:54,_RNvMs6_NtNtNtNtCsfsPcvtvSBg5_13rag_toolchain7clients6traits52___mock_MockAsyncEmbeddingClient_AsyncEmbeddingClient21___generate_embeddingsNtB5_11Expectation3new
FN:54,_RNvMs6_NtNtNtNtCsfsPcvtvSBg5_13rag_toolchain7clients6traits52___mock_MockAsyncEmbeddingClient_AsyncEmbeddingClient21___generate_embeddingsNtB5_11Expectation4once
FN:54,_RINvMs6_NtNtNtNtCsfsPcvtvSBg5_13rag_toolchain7clients6traits52___mock_MockAsyncEmbeddingClient_AsyncEmbeddingClient21___generate_embeddingsNtB6_11Expectation5timespEBe_
FN:54,_RINvMs6_NtNtNtNtCsfsPcvtvSBg5_13rag_toolchain7clients6traits52___mock_MockAsyncEmbeddingClient_AsyncEmbeddingClient21___generate_embeddingsNtB6_11Expectation4withpEBe_
FN:54,_RINvMs6_NtNtNtNtCsfsPcvtvSBg5_13rag_toolchain7clients6traits52___mock_MockAsyncEmbeddingClient_AsyncEmbeddingClient21___generate_embeddingsNtB6_11Expectation5withfpEBe_
FN:54,_RINvMs6_NtNtNtNtCsfsPcvtvSBg5_13rag_toolchain7clients6traits52___mock_MockAsyncEmbeddingClient_AsyncEmbeddingClient21___generate_embeddingsNtB6_11Expectation8withf_stpEBe_
FN:54,_RNvXs7_NtNtNtNtCsfsPcvtvSBg5_13rag_toolchain7clients6traits52___mock_MockAsyncEmbeddingClient_AsyncEmbeddingClient21___generate_embeddingsNtB5_11ExpectationNtNtCsaYZPK01V26L_4core7default7Default7default
FN:54,_RNvMs8_NtNtNtNtCsfsPcvtvSBg5_13rag_toolchain7clients6traits52___mock_MockAsyncEmbeddingClient_AsyncEmbeddingClient21___generate_embeddingsNtB5_12Expectations10checkpoint
FN:54,_RNvMs8_NtNtNtNtCsfsPcvtvSBg5_13rag_toolchain7clients6traits52___mock_MockAsyncEmbeddingClient_AsyncEmbeddingClient21___generate_embeddingsNtB5_12Expectations6expect
FN:54,_RNvMs8_NtNtNtNtCsfsPcvtvSBg5_13rag_toolchain7clients6traits52___mock_MockAsyncEmbeddingClient_AsyncEmbeddingClient21___generate_embeddingsNtB5_12Expectations3new
FN:54,_RNvXs9_NtNtNtNtCsfsPcvtvSBg5_13rag_toolchain7clients6traits52___mock_MockAsyncEmbeddingClient_AsyncEmbeddingClient21___generate_embeddingsNtB5_12ExpectationsNtNtCsaYZPK01V26L_4core7default7Default7default
FN:64,_RNvMsa_NtNtNtNtCsfsPcvtvSBg5_13rag_toolchain7clients6traits52___mock_MockAsyncEmbeddingClient_AsyncEmbeddingClient21___generate_embeddingsNtB5_12Expectations4call
FN:54,_RNCNvMsa_NtNtNtNtCsfsPcvtvSBg5_13rag_toolchain7clients6traits52___mock_MockAsyncEmbeddingClient_AsyncEmbeddingClient21___generate_embeddingsNtB7_12Expectations4call0Bf_
FN:54,_RNCNvMsa_NtNtNtNtCsfsPcvtvSBg5_13rag_toolchain7clients6traits52___mock_MockAsyncEmbeddingClient_AsyncEmbeddingClient21___generate_embeddingsNtB7_12Expectations4calls_0Bf_
FN:54,_RNvXs0_NtNtCsfsPcvtvSBg5_13rag_toolchain7clients6traitsNtB5_45MockAsyncEmbeddingClient_AsyncEmbeddingClientNtNtCsaYZPK01V26L_4core7default7Default7default
FN:54,_RNvMs1_NtNtCsfsPcvtvSBg5_13rag_toolchain7clients6traitsNtB5_45MockAsyncEmbeddingClient_AsyncEmbeddingClient10checkpoint
FN:54,_RNvMs2_NtNtCsfsPcvtvSBg5_13rag_toolchain7clients6traitsNtB5_24MockAsyncEmbeddingClient10checkpoint
FN:54,_RNvMs2_NtNtCsfsPcvtvSBg5_13rag_toolchain7clients6traitsNtB5_24MockAsyncEmbeddingClient3new
FN:54,_RNvXs3_NtNtCsfsPcvtvSBg5_13rag_toolchain7clients6traitsNtB5_24MockAsyncEmbeddingClientNtB5_20AsyncEmbeddingClient18generate_embedding
FN:54,_RNCNvXs3_NtNtCsfsPcvtvSBg5_13rag_toolchain7clients6traitsNtB7_24MockAsyncEmbeddingClientNtB7_20AsyncEmbeddingClient18generate_embedding0Bb_
FN:54,_RNvXs3_NtNtCsfsPcvtvSBg5_13rag_toolchain7clients6traitsNtB5_24MockAsyncEmbeddingClientNtB5_20AsyncEmbeddingClient19generate_embeddings
FN:54,_RNCNvXs3_NtNtCsfsPcvtvSBg5_13rag_toolchain7clients6traitsNtB7_24MockAsyncEmbeddingClientNtB7_20AsyncEmbeddingClient19generate_embeddings0Bb_
FN:54,_RNvMs4_NtNtCsfsPcvtvSBg5_13rag_toolchain7clients6traitsNtB5_24MockAsyncEmbeddingClient25expect_generate_embedding
FN:54,_RNvMs4_NtNtCsfsPcvtvSBg5_13rag_toolchain7clients6traitsNtB5_24MockAsyncEmbeddingClient26expect_generate_embeddings
FN:66,_RNvMs4_NtNtNtNtCsfsPcvtvSBg5_13rag_toolchain7clients6traits42___mock_MockAsyncChatClient_AsyncChatClient8___invokeNtB5_6Common11in_sequence
FN:66,_RNvMs4_NtNtNtNtCsfsPcvtvSBg5_13rag_toolchain7clients6traits42___mock_MockAsyncChatClient_AsyncChatClient8___invokeNtB5_6Common5never
FN:66,_RINvMs4_NtNtNtNtCsfsPcvtvSBg5_13rag_toolchain7clients6traits42___mock_MockAsyncChatClient_AsyncChatClient8___invokeNtB6_6Common5withfpEBe_
FN:66,_RINvMs4_NtNtNtNtCsfsPcvtvSBg5_13rag_toolchain7clients6traits42___mock_MockAsyncChatClient_AsyncChatClient8___invokeNtB6_6Common8withf_stpEBe_
FN:75,_RINvMs6_NtNtNtNtCsfsPcvtvSBg5_13rag_toolchain7clients6traits42___mock_MockAsyncChatClient_AsyncChatClient8___invokeNtB6_11Expectation12return_constpEBe_
FN:66,_RNCINvMs6_NtNtNtNtCsfsPcvtvSBg5_13rag_toolchain7clients6traits42___mock_MockAsyncChatClient_AsyncChatClient8___invokeNtB8_11Expectation12return_constpE0Bg_
FN:75,_RINvMs6_NtNtNtNtCsfsPcvtvSBg5_13rag_toolchain7clients6traits42___mock_MockAsyncChatClient_AsyncChatClient8___invokeNtB6_11Expectation15return_const_stpEBe_
FN:66,_RNCINvMs6_NtNtNtNtCsfsPcvtvSBg5_13rag_toolchain7clients6traits42___mock_MockAsyncChatClient_AsyncChatClient8___invokeNtB8_11Expectation15return_const_stpE0Bg_
FN:66,_RINvMs6_NtNtNtNtCsfsPcvtvSBg5_13rag_toolchain7clients6traits42___mock_MockAsyncChatClient_AsyncChatClient8___invokeNtB6_11Expectation11return_oncepEBe_
FN:66,_RINvMs6_NtNtNtNtCsfsPcvtvSBg5_13rag_toolchain7clients6traits42___mock_MockAsyncChatClient_AsyncChatClient8___invokeNtB6_11Expectation14return_once_stpEBe_
FN:66,_RINvMs6_NtNtNtNtCsfsPcvtvSBg5_13rag_toolchain7clients6traits42___mock_MockAsyncChatClient_AsyncChatClient8___invokeNtB6_11Expectation12returning_stpEBe_
FN:66,_RNvMs6_NtNtNtNtCsfsPcvtvSBg5_13rag_toolchain7clients6traits42___mock_MockAsyncChatClient_AsyncChatClient8___invokeNtB5_11Expectation11in_sequence
FN:66,_RNvMs6_NtNtNtNtCsfsPcvtvSBg5_13rag_toolchain7clients6traits42___mock_MockAsyncChatClient_AsyncChatClient8___invokeNtB5_11Expectation5never
FN:66,_RNvMs6_NtNtNtNtCsfsPcvtvSBg5_13rag_toolchain7clients6traits42___mock_MockAsyncChatClient_AsyncChatClient8___invokeNtB5_11Expectation3new
FN:66,_RNvMs6_NtNtNtNtCsfsPcvtvSBg5_13rag_toolchain7clients6traits42___mock_MockAsyncChatClient_AsyncChatClient8___invokeNtB5_11Expectation4once
FN:66,_RINvMs6_NtNtNtNtCsfsPcvtvSBg5_13rag_toolchain7clients6traits42___mock_MockAsyncChatClient_AsyncChatClient8___invokeNtB6_11Expectation5withfpEBe_
FN:66,_RINvMs6_NtNtNtNtCsfsPcvtvSBg5_13rag_toolchain7clients6traits42___mock_MockAsyncChatClient_AsyncChatClient8___invokeNtB6_11Expectation8withf_stpEBe_
FN:66,_RNvMs8_NtNtNtNtCsfsPcvtvSBg5_13rag_toolchain7clients6traits42___mock_MockAsyncChatClient_AsyncChatClient8___invokeNtB5_12Expectations10checkpoint
FN:66,_RNvMs8_NtNtNtNtCsfsPcvtvSBg5_13rag_toolchain7clients6traits42___mock_MockAsyncChatClient_AsyncChatClient8___invokeNtB5_12Expectations3new
FN:66,_RNvMs7_NtNtCsfsPcvtvSBg5_13rag_toolchain7clients6traitsNtB5_35MockAsyncChatClient_AsyncChatClient10checkpoint
FN:66,_RNvMs8_NtNtCsfsPcvtvSBg5_13rag_toolchain7clients6traitsNtB5_19MockAsyncChatClient10checkpoint
FN:78,_RNvMs4_NtNtNtNtCsfsPcvtvSBg5_13rag_toolchain7clients6traits58___mock_MockAsyncStreamedChatClient_AsyncStreamedChatClient15___invoke_streamNtB5_6Common11in_sequence
FN:78,_RNvMs4_NtNtNtNtCsfsPcvtvSBg5_13rag_toolchain7clients6traits58___mock_MockAsyncStreamedChatClient_AsyncStreamedChatClient15___invoke_streamNtB5_6Common5never
FN:78,_RINvMs4_NtNtNtNtCsfsPcvtvSBg5_13rag_toolchain7clients6traits58___mock_MockAsyncStreamedChatClient_AsyncStreamedChatClient15___invoke_streamNtB6_6Common5timespEBe_
FN:78,_RINvMs4_NtNtNtNtCsfsPcvtvSBg5_13rag_toolchain7clients6traits58___mock_MockAsyncStreamedChatClient_AsyncStreamedChatClient15___invoke_streamNtB6_6Common5withfpEBe_
FN:78,_RINvMs4_NtNtNtNtCsfsPcvtvSBg5_13rag_toolchain7clients6traits58___mock_MockAsyncStreamedChatClient_AsyncStreamedChatClient15___invoke_streamNtB6_6Common8withf_stpEBe_
FN:89,_RINvMs6_NtNtNtNtCsfsPcvtvSBg5_13rag_toolchain7clients6traits58___mock_MockAsyncStreamedChatClient_AsyncStreamedChatClient15___invoke_streamNtB6_11Expectation12return_constpEBe_
FN:78,_RNCINvMs6_NtNtNtNtCsfsPcvtvSBg5_13rag_toolchain7clients6traits58___mock_MockAsyncStreamedChatClient_AsyncStreamedChatClient15___invoke_streamNtB8_11Expectation12return_constpE0Bg_
FN:89,_RINvMs6_NtNtNtNtCsfsPcvtvSBg5_13rag_toolchain7clients6traits58___mock_MockAsyncStreamedChatClient_AsyncStreamedChatClient15___invoke_streamNtB6_11Expectation15return_const_stpEBe_
FN:78,_RNCINvMs6_NtNtNtNtCsfsPcvtvSBg5_13rag_toolchain7clients6traits58___mock_MockAsyncStreamedChatClient_AsyncStreamedChatClient15___invoke_streamNtB8_11Expectation15return_const_stpE0Bg_
FN:78,_RINvMs6_NtNtNtNtCsfsPcvtvSBg5_13rag_toolchain7clients6traits58___mock_MockAsyncStreamedChatClient_AsyncStreamedChatClient15___invoke_streamNtB6_11Expectation11return_oncepEBe_
FN:78,_RINvMs6_NtNtNtNtCsfsPcvtvSBg5_13rag_toolchain7clients6traits58___mock_MockAsyncStreamedChatClient_AsyncStreamedChatClient15___invoke_streamNtB6_11Expectation14return_once_stpEBe_
FN:78,_RINvMs6_NtNtNtNtCsfsPcvtvSBg5_13rag_toolchain7clients6traits58___mock_MockAsyncStreamedChatClient_AsyncStreamedChatClient15___invoke_streamNtB6_11Expectation12returning_stpEBe_
FN:78,_RNvMs6_NtNtNtNtCsfsPcvtvSBg5_13rag_toolchain7clients6traits58___mock_MockAsyncStreamedChatClient_AsyncStreamedChatClient15___invoke_streamNtB5_11Expectation11in_sequence
FN:78,_RNvMs6_NtNtNtNtCsfsPcvtvSBg5_13rag_toolchain7clients6traits58___mock_MockAsyncStreamedChatClient_AsyncStreamedChatClient15___invoke_streamNtB5_11Expectation5never
FN:78,_RNvMs6_NtNtNtNtCsfsPcvtvSBg5_13rag_toolchain7clients6traits58___mock_MockAsyncStreamedChatClient_AsyncStreamedChatClient15___invoke_streamNtB5_11Expectation3new
FN:78,_RNvMs6_NtNtNtNtCsfsPcvtvSBg5_13rag_toolchain7clients6traits58___mock_MockAsyncStreamedChatClient_AsyncStreamedChatClient15___invoke_streamNtB5_11Expectation4once
FN:78,_RINvMs6_NtNtNtNtCsfsPcvtvSBg5_13rag_toolchain7clients6traits58___mock_MockAsyncStreamedChatClient_AsyncStreamedChatClient15___invoke_streamNtB6_11Expectation5timespEBe_
FN:78,_RINvMs6_NtNtNtNtCsfsPcvtvSBg5_13rag_toolchain7clients6traits58___mock_MockAsyncStreamedChatClient_AsyncStreamedChatClient15___invoke_streamNtB6_11Expectation5withfpEBe_
FN:78,_RINvMs6_NtNtNtNtCsfsPcvtvSBg5_13rag_toolchain7clients6traits58___mock_MockAsyncStreamedChatClient_AsyncStreamedChatClient15___invoke_streamNtB6_11Expectation8withf_stpEBe_
FN:78,_RNvMs8_NtNtNtNtCsfsPcvtvSBg5_13rag_toolchain7clients6traits58___mock_MockAsyncStreamedChatClient_AsyncStreamedChatClient15___invoke_streamNtB5_12Expectations10checkpoint
FN:78,_RNvMs8_NtNtNtNtCsfsPcvtvSBg5_13rag_toolchain7clients6traits58___mock_MockAsyncStreamedChatClient_AsyncStreamedChatClient15___invoke_streamNtB5_12Expectations3new
FN:78,_RNvMsd_NtNtCsfsPcvtvSBg5_13rag_toolchain7clients6traitsNtB5_51MockAsyncStreamedChatClient_AsyncStreamedChatClient10checkpoint
FN:78,_RNvMse_NtNtCsfsPcvtvSBg5_13rag_toolchain7clients6traitsNtB5_27MockAsyncStreamedChatClient10checkpoint
FN:92,_RNvMs4_NtNtNtNtCsfsPcvtvSBg5_13rag_toolchain7clients6traits52___mock_MockChatCompletionStream_ChatCompletionStream6___nextNtB5_6Common11in_sequence
FN:92,_RNvMs4_NtNtNtNtCsfsPcvtvSBg5_13rag_toolchain7clients6traits52___mock_MockChatCompletionStream_ChatCompletionStream6___nextNtB5_6Common5never
FN:92,_RINvMs4_NtNtNtNtCsfsPcvtvSBg5_13rag_toolchain7clients6traits52___mock_MockChatCompletionStream_ChatCompletionStream6___nextNtB6_6Common5timespEBe_
FN:92,_RNvMs4_NtNtNtNtCsfsPcvtvSBg5_13rag_toolchain7clients6traits52___mock_MockChatCompletionStream_ChatCompletionStream6___nextNtB5_6Common4with
FN:92,_RINvMs4_NtNtNtNtCsfsPcvtvSBg5_13rag_toolchain7clients6traits52___mock_MockChatCompletionStream_ChatCompletionStream6___nextNtB6_6Common5withfpEBe_
FN:92,_RINvMs4_NtNtNtNtCsfsPcvtvSBg5_13rag_toolchain7clients6traits52___mock_MockChatCompletionStream_ChatCompletionStream6___nextNtB6_6Common8withf_stpEBe_
FN:99,_RINvMs6_NtNtNtNtCsfsPcvtvSBg5_13rag_toolchain7clients6traits52___mock_MockChatCompletionStream_ChatCompletionStream6___nextNtB6_11Expectation12return_constpEBe_
FN:92,_RNCINvMs6_NtNtNtNtCsfsPcvtvSBg5_13rag_toolchain7clients6traits52___mock_MockChatCompletionStream_ChatCompletionStream6___nextNtB8_11Expectation12return_constpE0Bg_
FN:99,_RINvMs6_NtNtNtNtCsfsPcvtvSBg5_13rag_toolchain7clients6traits52___mock_MockChatCompletionStream_ChatCompletionStream6___nextNtB6_11Expectation15return_const_stpEBe_
FN:92,_RNCINvMs6_NtNtNtNtCsfsPcvtvSBg5_13rag_toolchain7clients6traits52___mock_MockChatCompletionStream_ChatCompletionStream6___nextNtB8_11Expectation15return_const_stpE0Bg_
FN:92,_RINvMs6_NtNtNtNtCsfsPcvtvSBg5_13rag_toolchain7clients6traits52___mock_MockChatCompletionStream_ChatCompletionStream6___nextNtB6_11Expectation11return_oncepEBe_
FN:92,_RINvMs6_NtNtNtNtCsfsPcvtvSBg5_13rag_toolchain7clients6traits52___mock_MockChatCompletionStream_ChatCompletionStream6___nextNtB6_11Expectation14return_once_stpEBe_
FN:92,_RINvMs6_NtNtNtNtCsfsPcvtvSBg5_13rag_toolchain7clients6traits52___mock_MockChatCompletionStream_ChatCompletionStream6___nextNtB6_11Expectation12returning_stpEBe_
FN:92,_RNvMs6_NtNtNtNtCsfsPcvtvSBg5_13rag_toolchain7clients6traits52___mock_MockChatCompletionStream_ChatCompletionStream6___nextNtB5_11Expectation11in_sequence
FN:92,_RNvMs6_NtNtNtNtCsfsPcvtvSBg5_13rag_toolchain7clients6traits52___mock_MockChatCompletionStream_ChatCompletionStream6___nextNtB5_11Expectation5never
FN:92,_RNvMs6_NtNtNtNtCsfsPcvtvSBg5_13rag_toolchain7clients6traits52___mock_MockChatCompletionStream_ChatCompletionStream6___nextNtB5_11Expectation3new
FN:92,_RNvMs6_NtNtNtNtCsfsPcvtvSBg5_13rag_toolchain7clients6traits52___mock_MockChatCompletionStream_ChatCompletionStream6___nextNtB5_11Expectation4once
FN:92,_RINvMs6_NtNtNtNtCsfsPcvtvSBg5_13rag_toolchain7clients6traits52___mock_MockChatCompletionStream_ChatCompletionStream6___nextNtB6_11Expectation5timespEBe_
FN:92,_RNvMs6_NtNtNtNtCsfsPcvtvSBg5_13rag_toolchain7clients6traits52___mock_MockChatCompletionStream_ChatCompletionStream6___nextNtB5_11Expectation4with
FN:92,_RINvMs6_NtNtNtNtCsfsPcvtvSBg5_13rag_toolchain7clients6traits52___mock_MockChatCompletionStream_ChatCompletionStream6___nextNtB6_11Expectation5withfpEBe_
FN:92,_RINvMs6_NtNtNtNtCsfsPcvtvSBg5_13rag_toolchain7clients6traits52___mock_MockChatCompletionStream_ChatCompletionStream6___nextNtB6_11Expectation8withf_stpEBe_
FN:92,_RNvMs8_NtNtNtNtCsfsPcvtvSBg5_13rag_toolchain7clients6traits52___mock_MockChatCompletionStream_ChatCompletionStream6___nextNtB5_12Expectations10checkpoint
FN:92,_RNvMs8_NtNtNtNtCsfsPcvtvSBg5_13rag_toolchain7clients6traits52___mock_MockChatCompletionStream_ChatCompletionStream6___nextNtB5_12Expectations3new
FN:92,_RNvMsj_NtNtCsfsPcvtvSBg5_13rag_toolchain7clients6traitsNtB5_45MockChatCompletionStream_ChatCompletionStream10checkpoint
FN:92,_RNvMsk_NtNtCsfsPcvtvSBg5_13rag_toolchain7clients6traitsNtB5_24MockChatCompletionStream10checkpoint
FN:103,_RNvXNtNtCsfsPcvtvSBg5_13rag_toolchain7clients6traitsNtB2_19MockAsyncChatClientNtNtCsaYZPK01V26L_4core5clone5Clone5clone
FN:92,_RNCNvMs0_NtNtNtNtCsfsPcvtvSBg5_13rag_toolchain7clients6traits52___mock_MockChatCompletionStream_ChatCompletionStream6___nextNtB7_7Matcher7matches0Bf_
FN:92,_RNCNvMs4_NtNtNtNtCsfsPcvtvSBg5_13rag_toolchain7clients6traits52___mock_MockChatCompletionStream_ChatCompletionStream6___nextNtB7_6Common4call0Bf_
FN:92,_RNCNvMs6_NtNtNtNtCsfsPcvtvSBg5_13rag_toolchain7clients6traits52___mock_MockChatCompletionStream_ChatCompletionStream6___nextNtB7_11Expectation4call0Bf_
FN:92,_RINvMs6_NtNtNtNtCsfsPcvtvSBg5_13rag_toolchain7clients6traits52___mock_MockChatCompletionStream_ChatCompletionStream6___nextNtB6_11Expectation9returningNCNCNCNvNtNtNtBe_6chains15basic_rag_chain21basic_rag_chain_testss_28test_streamed_chain_succeeds0s_00EBe_
FN:92,_RNCNvMsa_NtNtNtNtCsfsPcvtvSBg5_13rag_toolchain7clients6traits52___mock_MockChatCompletionStream_ChatCompletionStream6___nextNtB7_12Expectations4call0Bf_
FN:92,_RNCNvMsa_NtNtNtNtCsfsPcvtvSBg5_13rag_toolchain7clients6traits52___mock_MockChatCompletionStream_ChatCompletionStream6___nextNtB7_12Expectations4calls_0Bf_
FN:78,_RNCNvMs0_NtNtNtNtCsfsPcvtvSBg5_13rag_toolchain7clients6traits58___mock_MockAsyncStreamedChatClient_AsyncStreamedChatClient15___invoke_streamNtB7_7Matcher7matches0Bf_
FN:78,_RNCNvMs4_NtNtNtNtCsfsPcvtvSBg5_13rag_toolchain7clients6traits58___mock_MockAsyncStreamedChatClient_AsyncStreamedChatClient15___invoke_streamNtB7_6Common4call0Bf_
FN:78,_RINvMs4_NtNtNtNtCsfsPcvtvSBg5_13rag_toolchain7clients6traits58___mock_MockAsyncStreamedChatClient_AsyncStreamedChatClient15___invoke_streamNtB6_6Common4withINtNtCs7xKSZ3o61tT_10predicates3ord11EqPredicateINtNtCsdZExvAaxgia_5alloc3vec3VecNtNtBc_5types13PromptMessageEEEBe_
FN:78,_RNCNvMs6_NtNtNtNtCsfsPcvtvSBg5_13rag_toolchain7clients6traits58___mock_MockAsyncStreamedChatClient_AsyncStreamedChatClient15___invoke_streamNtB7_11Expectation4call0Bf_
FN:78,_RINvMs6_NtNtNtNtCsfsPcvtvSBg5_13rag_toolchain7clients6traits58___mock_MockAsyncStreamedChatClient_AsyncStreamedChatClient15___invoke_streamNtB6_11Expectation9returningNCNCNvNtNtNtBe_6chains15basic_rag_chain21basic_rag_chain_testss_28test_streamed_chain_succeeds0s_0EBe_
FN:78,_RINvMs6_NtNtNtNtCsfsPcvtvSBg5_13rag_toolchain7clients6traits58___mock_MockAsyncStreamedChatClient_AsyncStreamedChatClient15___invoke_streamNtB6_11Expectation4withINtNtCs7xKSZ3o61tT_10predicates3ord11EqPredicateINtNtCsdZExvAaxgia_5alloc3vec3VecNtNtBc_5types13PromptMessageEEEBe_
FN:78,_RNCNvMsa_NtNtNtNtCsfsPcvtvSBg5_13rag_toolchain7clients6traits58___mock_MockAsyncStreamedChatClient_AsyncStreamedChatClient15___invoke_streamNtB7_12Expectations4call0Bf_
FN:78,_RNCNvMsa_NtNtNtNtCsfsPcvtvSBg5_13rag_toolchain7clients6traits58___mock_MockAsyncStreamedChatClient_AsyncStreamedChatClient15___invoke_streamNtB7_12Expectations4calls_0Bf_
FN:66,_RNCNvXs9_NtNtCsfsPcvtvSBg5_13rag_toolchain7clients6traitsNtB7_19MockAsyncChatClientNtB7_15AsyncChatClient6invoke0Bb_
FN:78,_RNCNvXsf_NtNtCsfsPcvtvSBg5_13rag_toolchain7clients6traitsNtB7_27MockAsyncStreamedChatClientNtB7_23AsyncStreamedChatClient13invoke_stream0Bb_
FN:92,_RNCNvXsl_NtNtCsfsPcvtvSBg5_13rag_toolchain7clients6traitsNtB7_24MockChatCompletionStreamNtB7_20ChatCompletionStream4next0Bb_
FN:92,_RNvMNtNtNtNtCsfsPcvtvSBg5_13rag_toolchain7clients6traits52___mock_MockChatCompletionStream_ChatCompletionStream6___nextNtB2_5Rfunc8call_mut
FN:92,_RNvXs_NtNtNtNtCsfsPcvtvSBg5_13rag_toolchain7clients6traits52___mock_MockChatCompletionStream_ChatCompletionStream6___nextNtB4_5RfuncNtNtCsaYZPK01V26L_4core7default7Default7default
FN:92,_RNvMs0_NtNtNtNtCsfsPcvtvSBg5_13rag_toolchain7clients6traits52___mock_MockChatCompletionStream_ChatCompletionStream6___nextNtB5_7Matcher7matches
FN:92,_RNvXs1_NtNtNtNtCsfsPcvtvSBg5_13rag_toolchain7clients6traits52___mock_MockChatCompletionStream_ChatCompletionStream6___nextNtB5_7MatcherNtNtCsaYZPK01V26L_4core7default7Default7default
FN:92,_RNvXs2_NtNtNtNtCsfsPcvtvSBg5_13rag_toolchain7clients6traits52___mock_MockChatCompletionStream_ChatCompletionStream6___nextNtB5_7MatcherNtNtCsaYZPK01V26L_4core3fmt7Display3fmt
FN:92,_RNvXs3_NtNtNtNtCsfsPcvtvSBg5_13rag_toolchain7clients6traits52___mock_MockChatCompletionStream_ChatCompletionStream6___nextNtB5_6CommonNtNtCsaYZPK01V26L_4core7default7Default7default
FN:99,_RNvMs4_NtNtNtNtCsfsPcvtvSBg5_13rag_toolchain7clients6traits52___mock_MockChatCompletionStream_ChatCompletionStream6___nextNtB5_6Common4call
FN:92,_RNvMs4_NtNtNtNtCsfsPcvtvSBg5_13rag_toolchain7clients6traits52___mock_MockChatCompletionStream_ChatCompletionStream6___nextNtB5_6Common7is_done
FN:92,_RNvMs4_NtNtNtNtCsfsPcvtvSBg5_13rag_toolchain7clients6traits52___mock_MockChatCompletionStream_ChatCompletionStream6___nextNtB5_6Common7matches
FN:92,_RNvMs4_NtNtNtNtCsfsPcvtvSBg5_13rag_toolchain7clients6traits52___mock_MockChatCompletionStream_ChatCompletionStream6___nextNtB5_6Common16satisfy_sequence
FN:92,_RNvMs4_NtNtNtNtCsfsPcvtvSBg5_13rag_toolchain7clients6traits52___mock_MockChatCompletionStream_ChatCompletionStream6___nextNtB5_6Common15verify_sequence
FN:99,_RNvMs6_NtNtNtNtCsfsPcvtvSBg5_13rag_toolchain7clients6traits52___mock_MockChatCompletionStream_ChatCompletionStream6___nextNtB5_11Expectation4call
FN:92,_RNvMs6_NtNtNtNtCsfsPcvtvSBg5_13rag_toolchain7clients6traits52___mock_MockChatCompletionStream_ChatCompletionStream6___nextNtB5_11Expectation7is_done
FN:92,_RNvMs6_NtNtNtNtCsfsPcvtvSBg5_13rag_toolchain7clients6traits52___mock_MockChatCompletionStream_ChatCompletionStream6___nextNtB5_11Expectation7matches
FN:92,_RNvXs7_NtNtNtNtCsfsPcvtvSBg5_13rag_toolchain7clients6traits52___mock_MockChatCompletionStream_ChatCompletionStream6___nextNtB5_11ExpectationNtNtCsaYZPK01V26L_4core7default7Default7default
FN:92,_RNvMs8_NtNtNtNtCsfsPcvtvSBg5_13rag_toolchain7clients6traits52___mock_MockChatCompletionStream_ChatCompletionStream6___nextNtB5_12Expectations6expect
FN:92,_RNvXs9_NtNtNtNtCsfsPcvtvSBg5_13rag_toolchain7clients6traits52___mock_MockChatCompletionStream_ChatCompletionStream6___nextNtB5_12ExpectationsNtNtCsaYZPK01V26L_4core7default7Default7default
FN:99,_RNvMsa_NtNtNtNtCsfsPcvtvSBg5_13rag_toolchain7clients6traits52___mock_MockChatCompletionStream_ChatCompletionStream6___nextNtB5_12Expectations4call
FN:66,_RNvXs5_NtNtNtNtCsfsPcvtvSBg5_13rag_toolchain7clients6traits42___mock_MockAsyncChatClient_AsyncChatClient8___invokeNtB5_6CommonNtNtNtCsaYZPK01V26L_4core3ops4drop4Drop4drop
FN:78,_RNvXs5_NtNtNtNtCsfsPcvtvSBg5_13rag_toolchain7clients6traits58___mock_MockAsyncStreamedChatClient_AsyncStreamedChatClient15___invoke_streamNtB5_6CommonNtNtNtCsaYZPK01V26L_4core3ops4drop4Drop4drop
FN:92,_RNvXs5_NtNtNtNtCsfsPcvtvSBg5_13rag_toolchain7clients6traits52___mock_MockChatCompletionStream_ChatCompletionStream6___nextNtB5_6CommonNtNtNtCsaYZPK01V26L_4core3ops4drop4Drop4drop
FN:66,_RNCNvMs0_NtNtNtNtCsfsPcvtvSBg5_13rag_toolchain7clients6traits42___mock_MockAsyncChatClient_AsyncChatClient8___invokeNtB7_7Matcher7matches0Bf_
FN:66,_RNCNvMs4_NtNtNtNtCsfsPcvtvSBg5_13rag_toolchain7clients6traits42___mock_MockAsyncChatClient_AsyncChatClient8___invokeNtB7_6Common4call0Bf_
FN:66,_RINvMs4_NtNtNtNtCsfsPcvtvSBg5_13rag_toolchain7clients6traits42___mock_MockAsyncChatClient_AsyncChatClient8___invokeNtB6_6Common5timesjEBe_
FN:66,_RINvMs4_NtNtNtNtCsfsPcvtvSBg5_13rag_toolchain7clients6traits42___mock_MockAsyncChatClient_AsyncChatClient8___invokeNtB6_6Common4withINtNtCs7xKSZ3o61tT_10predicates3ord11EqPredicateINtNtCsdZExvAaxgia_5alloc3vec3VecNtNtBc_5types13PromptMessageEEEBe_
FN:66,_RNCNvMs6_NtNtNtNtCsfsPcvtvSBg5_13rag_toolchain7clients6traits42___mock_MockAsyncChatClient_AsyncChatClient8___invokeNtB7_11Expectation4call0Bf_
FN:66,_RINvMs6_NtNtNtNtCsfsPcvtvSBg5_13rag_toolchain7clients6traits42___mock_MockAsyncChatClient_AsyncChatClient8___invokeNtB6_11Expectation9returningNCNCNvNtNtNtBe_6chains15basic_rag_chain21basic_rag_chain_testss_19test_chain_succeeds0s_0EBe_
FN:66,_RINvMs6_NtNtNtNtCsfsPcvtvSBg5_13rag_toolchain7clients6traits42___mock_MockAsyncChatClient_AsyncChatClient8___invokeNtB6_11Expectation9returningNCNCNvNtNtNtBe_6chains18chat_history_chain24chat_history_chain_testss_23test_chat_history_chain00EBe_
FN:66,_RINvMs6_NtNtNtNtCsfsPcvtvSBg5_13rag_toolchain7clients6traits42___mock_MockAsyncChatClient_AsyncChatClient8___invokeNtB6_11Expectation9returningNCNCNvNtNtNtBe_6chains18chat_history_chain24chat_history_chain_testss_23test_chat_history_chain0s_0EBe_
FN:66,_RINvMs6_NtNtNtNtCsfsPcvtvSBg5_13rag_toolchain7clients6traits42___mock_MockAsyncChatClient_AsyncChatClient8___invokeNtB6_11Expectation5timesjEBe_
FN:66,_RINvMs6_NtNtNtNtCsfsPcvtvSBg5_13rag_toolchain7clients6traits42___mock_MockAsyncChatClient_AsyncChatClient8___invokeNtB6_11Expectation4withINtNtCs7xKSZ3o61tT_10predicates3ord11EqPredicateINtNtCsdZExvAaxgia_5alloc3vec3VecNtNtBc_5types13PromptMessageEEEBe_
FN:66,_RNCNvMsa_NtNtNtNtCsfsPcvtvSBg5_13rag_toolchain7clients6traits42___mock_MockAsyncChatClient_AsyncChatClient8___invokeNtB7_12Expectations4call0Bf_
FN:66,_RNCNvMsa_NtNtNtNtCsfsPcvtvSBg5_13rag_toolchain7clients6traits42___mock_MockAsyncChatClient_AsyncChatClient8___invokeNtB7_12Expectations4calls_0Bf_
FN:66,_RNvMNtNtNtNtCsfsPcvtvSBg5_13rag_toolchain7clients6traits42___mock_MockAsyncChatClient_AsyncChatClient8___invokeNtB2_5Rfunc8call_mut
FN:66,_RNvXs_NtNtNtNtCsfsPcvtvSBg5_13rag_toolchain7clients6traits42___mock_MockAsyncChatClient_AsyncChatClient8___invokeNtB4_5RfuncNtNtCsaYZPK01V26L_4core7default7Default7default
FN:66,_RNvMs0_NtNtNtNtCsfsPcvtvSBg5_13rag_toolchain7clients6traits42___mock_MockAsyncChatClient_AsyncChatClient8___invokeNtB5_7Matcher7matches
FN:66,_RNvXs1_NtNtNtNtCsfsPcvtvSBg5_13rag_toolchain7clients6traits42___mock_MockAsyncChatClient_AsyncChatClient8___invokeNtB5_7MatcherNtNtCsaYZPK01V26L_4core7default7Default7default
FN:66,_RNvXs2_NtNtNtNtCsfsPcvtvSBg5_13rag_toolchain7clients6traits42___mock_MockAsyncChatClient_AsyncChatClient8___invokeNtB5_7MatcherNtNtCsaYZPK01V26L_4core3fmt7Display3fmt
FN:66,_RNvXs3_NtNtNtNtCsfsPcvtvSBg5_13rag_toolchain7clients6traits42___mock_MockAsyncChatClient_AsyncChatClient8___invokeNtB5_6CommonNtNtCsaYZPK01V26L_4core7default7Default7default
FN:75,_RNvMs4_NtNtNtNtCsfsPcvtvSBg5_13rag_toolchain7clients6traits42___mock_MockAsyncChatClient_AsyncChatClient8___invokeNtB5_6Common4call
FN:66,_RNvMs4_NtNtNtNtCsfsPcvtvSBg5_13rag_toolchain7clients6traits42___mock_MockAsyncChatClient_AsyncChatClient8___invokeNtB5_6Common7is_done
FN:66,_RNvMs4_NtNtNtNtCsfsPcvtvSBg5_13rag_toolchain7clients6traits42___mock_MockAsyncChatClient_AsyncChatClient8___invokeNtB5_6Common7matches
FN:66,_RNvMs4_NtNtNtNtCsfsPcvtvSBg5_13rag_toolchain7clients6traits42___mock_MockAsyncChatClient_AsyncChatClient8___invokeNtB5_6Common16satisfy_sequence
FN:66,_RNvMs4_NtNtNtNtCsfsPcvtvSBg5_13rag_toolchain7clients6traits42___mock_MockAsyncChatClient_AsyncChatClient8___invokeNtB5_6Common15verify_sequence
FN:75,_RNvMs6_NtNtNtNtCsfsPcvtvSBg5_13rag_toolchain7clients6traits42___mock_MockAsyncChatClient_AsyncChatClient8___invokeNtB5_11Expectation4call
FN:66,_RNvMs6_NtNtNtNtCsfsPcvtvSBg5_13rag_toolchain7clients6traits42___mock_MockAsyncChatClient_AsyncChatClient8___invokeNtB5_11Expectation7is_done
FN:66,_RNvMs6_NtNtNtNtCsfsPcvtvSBg5_13rag_toolchain7clients6traits42___mock_MockAsyncChatClient_AsyncChatClient8___invokeNtB5_11Expectation7matches
FN:66,_RNvXs7_NtNtNtNtCsfsPcvtvSBg5_13rag_toolchain7clients6traits42___mock_MockAsyncChatClient_AsyncChatClient8___invokeNtB5_11ExpectationNtNtCsaYZPK01V26L_4core7default7Default7default
FN:66,_RNvMs8_NtNtNtNtCsfsPcvtvSBg5_13rag_toolchain7clients6traits42___mock_MockAsyncChatClient_AsyncChatClient8___invokeNtB5_12Expectations6expect
FN:66,_RNvXs9_NtNtNtNtCsfsPcvtvSBg5_13rag_toolchain7clients6traits42___mock_MockAsyncChatClient_AsyncChatClient8___invokeNtB5_12ExpectationsNtNtCsaYZPK01V26L_4core7default7Default7default
FN:75,_RNvMsa_NtNtNtNtCsfsPcvtvSBg5_13rag_toolchain7clients6traits42___mock_MockAsyncChatClient_AsyncChatClient8___invokeNtB5_12Expectations4call
FN:78,_RNvMNtNtNtNtCsfsPcvtvSBg5_13rag_toolchain7clients6traits58___mock_MockAsyncStreamedChatClient_AsyncStreamedChatClient15___invoke_streamNtB2_5Rfunc8call_mut
FN:78,_RNvXs_NtNtNtNtCsfsPcvtvSBg5_13rag_toolchain7clients6traits58___mock_MockAsyncStreamedChatClient_AsyncStreamedChatClient15___invoke_streamNtB4_5RfuncNtNtCsaYZPK01V26L_4core7default7Default7default
FN:78,_RNvMs0_NtNtNtNtCsfsPcvtvSBg5_13rag_toolchain7clients6traits58___mock_MockAsyncStreamedChatClient_AsyncStreamedChatClient15___invoke_streamNtB5_7Matcher7matches
FN:78,_RNvXs1_NtNtNtNtCsfsPcvtvSBg5_13rag_toolchain7clients6traits58___mock_MockAsyncStreamedChatClient_AsyncStreamedChatClient15___invoke_streamNtB5_7MatcherNtNtCsaYZPK01V26L_4core7default7Default7default
FN:78,_RNvXs2_NtNtNtNtCsfsPcvtvSBg5_13rag_toolchain7clients6traits58___mock_MockAsyncStreamedChatClient_AsyncStreamedChatClient15___invoke_streamNtB5_7MatcherNtNtCsaYZPK01V26L_4core3fmt7Display3fmt
FN:78,_RNvXs3_NtNtNtNtCsfsPcvtvSBg5_13rag_toolchain7clients6traits58___mock_MockAsyncStreamedChatClient_AsyncStreamedChatClient15___invoke_streamNtB5_6CommonNtNtCsaYZPK01V26L_4core7default7Default7default
FN:89,_RNvMs4_NtNtNtNtCsfsPcvtvSBg5_13rag_toolchain7clients6traits58___mock_MockAsyncStreamedChatClient_AsyncStreamedChatClient15___invoke_streamNtB5_6Common4call
FN:78,_RNvMs4_NtNtNtNtCsfsPcvtvSBg5_13rag_toolchain7clients6traits58___mock_MockAsyncStreamedChatClient_AsyncStreamedChatClient15___invoke_streamNtB5_6Common7is_done
FN:78,_RNvMs4_NtNtNtNtCsfsPcvtvSBg5_13rag_toolchain7clients6traits58___mock_MockAsyncStreamedChatClient_AsyncStreamedChatClient15___invoke_streamNtB5_6Common7matches
FN:78,_RNvMs4_NtNtNtNtCsfsPcvtvSBg5_13rag_toolchain7clients6traits58___mock_MockAsyncStreamedChatClient_AsyncStreamedChatClient15___invoke_streamNtB5_6Common16satisfy_sequence
FN:78,_RNvMs4_NtNtNtNtCsfsPcvtvSBg5_13rag_toolchain7clients6traits58___mock_MockAsyncStreamedChatClient_AsyncStreamedChatClient15___invoke_streamNtB5_6Common15verify_sequence
FN:89,_RNvMs6_NtNtNtNtCsfsPcvtvSBg5_13rag_toolchain7clients6traits58___mock_MockAsyncStreamedChatClient_AsyncStreamedChatClient15___invoke_streamNtB5_11Expectation4call
FN:78,_RNvMs6_NtNtNtNtCsfsPcvtvSBg5_13rag_toolchain7clients6traits58___mock_MockAsyncStreamedChatClient_AsyncStreamedChatClient15___invoke_streamNtB5_11Expectation7is_done
FN:78,_RNvMs6_NtNtNtNtCsfsPcvtvSBg5_13rag_toolchain7clients6traits58___mock_MockAsyncStreamedChatClient_AsyncStreamedChatClient15___invoke_streamNtB5_11Expectation7matches
FN:78,_RNvXs7_NtNtNtNtCsfsPcvtvSBg5_13rag_toolchain7clients6traits58___mock_MockAsyncStreamedChatClient_AsyncStreamedChatClient15___invoke_streamNtB5_11ExpectationNtNtCsaYZPK01V26L_4core7default7Default7default
FN:78,_RNvMs8_NtNtNtNtCsfsPcvtvSBg5_13rag_toolchain7clients6traits58___mock_MockAsyncStreamedChatClient_AsyncStreamedChatClient15___invoke_streamNtB5_12Expectations6expect
FN:78,_RNvXs9_NtNtNtNtCsfsPcvtvSBg5_13rag_toolchain7clients6traits58___mock_MockAsyncStreamedChatClient_AsyncStreamedChatClient15___invoke_streamNtB5_12ExpectationsNtNtCsaYZPK01V26L_4core7default7Default7default
FN:89,_RNvMsa_NtNtNtNtCsfsPcvtvSBg5_13rag_toolchain7clients6traits58___mock_MockAsyncStreamedChatClient_AsyncStreamedChatClient15___invoke_streamNtB5_12Expectations4call
FNDA:2,_RNvXs5_NtNtCsfsPcvtvSBg5_13rag_toolchain7clients6traitsNtB5_19MockAsyncChatClientNtNtCsaYZPK01V26L_4core7default7Default7default
FNDA:2,_RNvXs6_NtNtCsfsPcvtvSBg5_13rag_toolchain7clients6traitsNtB5_35MockAsyncChatClient_AsyncChatClientNtNtCsaYZPK01V26L_4core7default7Default7default
FNDA:2,_RNvMs8_NtNtCsfsPcvtvSBg5_13rag_toolchain7clients6traitsNtB5_19MockAsyncChatClient3new
FNDA:3,_RNvXs9_NtNtCsfsPcvtvSBg5_13rag_toolchain7clients6traitsNtB5_19MockAsyncChatClientNtB5_15AsyncChatClient6invoke
FNDA:3,_RNvMsa_NtNtCsfsPcvtvSBg5_13rag_toolchain7clients6traitsNtB5_19MockAsyncChatClient13expect_invoke
FNDA:1,_RNvXsb_NtNtCsfsPcvtvSBg5_13rag_toolchain7clients6traitsNtB5_27MockAsyncStreamedChatClientNtNtCsaYZPK01V26L_4core7default7Default7default
FNDA:1,_RNvXsc_NtNtCsfsPcvtvSBg5_13rag_toolchain7clients6traitsNtB5_51MockAsyncStreamedChatClient_AsyncStreamedChatClientNtNtCsaYZPK01V26L_4core7default7Default7default
FNDA:1,_RNvMse_NtNtCsfsPcvtvSBg5_13rag_toolchain7clients6traitsNtB5_27MockAsyncStreamedChatClient3new
FNDA:1,_RNvXsf_NtNtCsfsPcvtvSBg5_13rag_toolchain7clients6traitsNtB5_27MockAsyncStreamedChatClientNtB5_23AsyncStreamedChatClient13invoke_stream
FNDA:1,_RNvMsg_NtNtCsfsPcvtvSBg5_13rag_toolchain7clients6traitsNtB5_27MockAsyncStreamedChatClient20expect_invoke_stream
FNDA:1,_RNvXsh_NtNtCsfsPcvtvSBg5_13rag_toolchain7clients6traitsNtB5_24MockChatCompletionStreamNtNtCsaYZPK01V26L_4core7default7Default7default
FNDA:1,_RNvXsi_NtNtCsfsPcvtvSBg5_13rag_toolchain7clients6traitsNtB5_45MockChatCompletionStream_ChatCompletionStreamNtNtCsaYZPK01V26L_4core7default7Default7default
FNDA:1,_RNvMsk_NtNtCsfsPcvtvSBg5_13rag_toolchain7clients6traitsNtB5_24MockChatCompletionStream3new
FNDA:1,_RNvXsl_NtNtCsfsPcvtvSBg5_13rag_toolchain7clients6traitsNtB5_24MockChatCompletionStreamNtB5_20ChatCompletionStream4next
FNDA:1,_RNvMsm_NtNtCsfsPcvtvSBg5_13rag_toolchain7clients6traitsNtB5_24MockChatCompletionStream11expect_next
FNDA:0,_RNvXs_NtNtCsfsPcvtvSBg5_13rag_toolchain7clients6traitsNtB4_24MockAsyncEmbeddingClientNtNtCsaYZPK01V26L_4core7default7Default7default
FNDA:0,_RNvMNtNtNtNtCsfsPcvtvSBg5_13rag_toolchain7clients6traits52___mock_MockAsyncEmbeddingClient_AsyncEmbeddingClient20___generate_embeddingNtB2_5Rfunc8call_mut
FNDA:0,_RNvXs_NtNtNtNtCsfsPcvtvSBg5_13rag_toolchain7clients6traits52___mock_MockAsyncEmbeddingClient_AsyncEmbeddingClient20___generate_embeddingNtB4_5RfuncNtNtCsaYZPK01V26L_4core7default7Default7default
FNDA:0,_RNvMs0_NtNtNtNtCsfsPcvtvSBg5_13rag_toolchain7clients6traits52___mock_MockAsyncEmbeddingClient_AsyncEmbeddingClient20___generate_embeddingNtB5_7Matcher7matches
FNDA:0,_RNCNvMs0_NtNtNtNtCsfsPcvtvSBg5_13rag_toolchain7clients6traits52___mock_MockAsyncEmbeddingClient_AsyncEmbeddingClient20___generate_embeddingNtB7_7Matcher7matches0Bf_
FNDA:0,_RNvXs1_NtNtNtNtCsfsPcvtvSBg5_13rag_toolchain7clients6traits52___mock_MockAsyncEmbeddingClient_AsyncEmbeddingClient20___generate_embeddingNtB5_7MatcherNtNtCsaYZPK01V26L_4core7default7Default7default
FNDA:0,_RNvXs2_NtNtNtNtCsfsPcvtvSBg5_13rag_toolchain7clients6traits52___mock_MockAsyncEmbeddingClient_AsyncEmbeddingClient20___generate_embeddingNtB5_7MatcherNtNtCsaYZPK01V26L_4core3fmt7Display3fmt
FNDA:0,_RNvXs3_NtNtNtNtCsfsPcvtvSBg5_13rag_toolchain7clients6traits52___mock_MockAsyncEmbeddingClient_AsyncEmbeddingClient20___generate_embeddingNtB5_6CommonNtNtCsaYZPK01V26L_4core7default7Default7default
FNDA:0,_RNvMs4_NtNtNtNtCsfsPcvtvSBg5_13rag_toolchain7clients6traits52___mock_MockAsyncEmbeddingClient_AsyncEmbeddingClient20___generate_embeddingNtB5_6Common4call
FNDA:0,_RNCNvMs4_NtNtNtNtCsfsPcvtvSBg5_13rag_toolchain7clients6traits52___mock_MockAsyncEmbeddingClient_AsyncEmbeddingClient20___generate_embeddingNtB7_6Common4call0Bf_
FNDA:0,_RNvMs4_NtNtNtNtCsfsPcvtvSBg5_13rag_toolchain7clients6traits52___mock_MockAsyncEmbeddingClient_AsyncEmbeddingClient20___generate_embeddingNtB5_6Common11in_sequence
FNDA:0,_RNvMs4_NtNtNtNtCsfsPcvtvSBg5_13rag_toolchain7clients6traits52___mock_MockAsyncEmbeddingClient_AsyncEmbeddingClient20___generate_embeddingNtB5_6Common7is_done
FNDA:0,_RNvMs4_NtNtNtNtCsfsPcvtvSBg5_13rag_toolchain7clients6traits52___mock_MockAsyncEmbeddingClient_AsyncEmbeddingClient20___generate_embeddingNtB5_6Common7matches
FNDA:0,_RNvMs4_NtNtNtNtCsfsPcvtvSBg5_13rag_toolchain7clients6traits52___mock_MockAsyncEmbeddingClient_AsyncEmbeddingClient20___generate_embeddingNtB5_6Common5never
FNDA:0,_RNvMs4_NtNtNtNtCsfsPcvtvSBg5_13rag_toolchain7clients6traits52___mock_MockAsyncEmbeddingClient_AsyncEmbeddingClient20___generate_embeddingNtB5_6Common16satisfy_sequence
FNDA:0,_RINvMs4_NtNtNtNtCsfsPcvtvSBg5_13rag_toolchain7clients6traits52___mock_MockAsyncEmbeddingClient_AsyncEmbeddingClient20___generate_embeddingNtB6_6Common5timespEBe_
FNDA:0,_RINvMs4_NtNtNtNtCsfsPcvtvSBg5_13rag_toolchain7clients6traits52___mock_MockAsyncEmbeddingClient_AsyncEmbeddingClient20___generate_embeddingNtB6_6Common4withpEBe_
FNDA:0,_RINvMs4_NtNtNtNtCsfsPcvtvSBg5_13rag_toolchain7clients6traits52___mock_MockAsyncEmbeddingClient_AsyncEmbeddingClient20___generate_embeddingNtB6_6Common5withfpEBe_
FNDA:0,_RINvMs4_NtNtNtNtCsfsPcvtvSBg5_13rag_toolchain7clients6traits52___mock_MockAsyncEmbeddingClient_AsyncEmbeddingClient20___generate_embeddingNtB6_6Common8withf_stpEBe_
FNDA:0,_RNvMs4_NtNtNtNtCsfsPcvtvSBg5_13rag_toolchain7clients6traits52___mock_MockAsyncEmbeddingClient_AsyncEmbeddingClient20___generate_embeddingNtB5_6Common15verify_sequence
FNDA:0,_RNvXs5_NtNtNtNtCsfsPcvtvSBg5_13rag_toolchain7clients6traits52___mock_MockAsyncEmbeddingClient_AsyncEmbeddingClient20___generate_embeddingNtB5_6CommonNtNtNtCsaYZPK01V26L_4core3ops4drop4Drop4drop
FNDA:0,_RNvMs6_NtNtNtNtCsfsPcvtvSBg5_13rag_toolchain7clients6traits52___mock_MockAsyncEmbeddingClient_AsyncEmbeddingClient20___generate_embeddingNtB5_11Expectation4call
FNDA:0,_RNCNvMs6_NtNtNtNtCsfsPcvtvSBg5_13rag_toolchain7clients6traits52___mock_MockAsyncEmbeddingClient_AsyncEmbeddingClient20___generate_embeddingNtB7_11Expectation4call0Bf_
FNDA:0,_RINvMs6_NtNtNtNtCsfsPcvtvSBg5_13rag_toolchain7clients6traits52___mock_MockAsyncEmbeddingClient_AsyncEmbeddingClient20___generate_embeddingNtB6_11Expectation12return_constpEBe_
FNDA:0,_RNCINvMs6_NtNtNtNtCsfsPcvtvSBg5_13rag_toolchain7clients6traits52___mock_MockAsyncEmbeddingClient_AsyncEmbeddingClient20___generate_embeddingNtB8_11Expectation12return_constpE0Bg_
FNDA:0,_RINvMs6_NtNtNtNtCsfsPcvtvSBg5_13rag_toolchain7clients6traits52___mock_MockAsyncEmbeddingClient_AsyncEmbeddingClient20___generate_embeddingNtB6_11Expectation15return_const_stpEBe_
FNDA:0,_RNCINvMs6_NtNtNtNtCsfsPcvtvSBg5_13rag_toolchain7clients6traits52___mock_MockAsyncEmbeddingClient_AsyncEmbeddingClient20___generate_embeddingNtB8_11Expectation15return_const_stpE0Bg_
FNDA:0,_RINvMs6_NtNtNtNtCsfsPcvtvSBg5_13rag_toolchain7clients6traits52___mock_MockAsyncEmbeddingClient_AsyncEmbeddingClient20___generate_embeddingNtB6_11Expectation11return_oncepEBe_
FNDA:0,_RINvMs6_NtNtNtNtCsfsPcvtvSBg5_13rag_toolchain7clients6traits52___mock_MockAsyncEmbeddingClient_AsyncEmbeddingClient20___generate_embeddingNtB6_11Expectation14return_once_stpEBe_
FNDA:0,_RINvMs6_NtNtNtNtCsfsPcvtvSBg5_13rag_toolchain7clients6traits52___mock_MockAsyncEmbeddingClient_AsyncEmbeddingClient20___generate_embeddingNtB6_11Expectation9returningpEBe_
FNDA:0,_RINvMs6_NtNtNtNtCsfsPcvtvSBg5_13rag_toolchain7clients6traits52___mock_MockAsyncEmbeddingClient_AsyncEmbeddingClient20___generate_embeddingNtB6_11Expectation12returning_stpEBe_
FNDA:0,_RNvMs6_NtNtNtNtCsfsPcvtvSBg5_13rag_toolchain7clients6traits52___mock_MockAsyncEmbeddingClient_AsyncEmbeddingClient20___generate_embeddingNtB5_11Expectation11in_sequence
FNDA:0,_RNvMs6_NtNtNtNtCsfsPcvtvSBg5_13rag_toolchain7clients6traits52___mock_MockAsyncEmbeddingClient_AsyncEmbeddingClient20___generate_embeddingNtB5_11Expectation7is_done
FNDA:0,_RNvMs6_NtNtNtNtCsfsPcvtvSBg5_13rag_toolchain7clients6traits52___mock_MockAsyncEmbeddingClient_AsyncEmbeddingClient20___generate_embeddingNtB5_11Expectation7matches
FNDA:0,_RNvMs6_NtNtNtNtCsfsPcvtvSBg5_13rag_toolchain7clients6traits52___mock_MockAsyncEmbeddingClient_AsyncEmbeddingClient20___generate_embeddingNtB5_11Expectation5never
FNDA:0,_RNvMs6_NtNtNtNtCsfsPcvtvSBg5_13rag_toolchain7clients6traits52___mock_MockAsyncEmbeddingClient_AsyncEmbeddingClient20___generate_embeddingNtB5_11Expectation3new
FNDA:0,_RNvMs6_NtNtNtNtCsfsPcvtvSBg5_13rag_toolchain7clients6traits52___mock_MockAsyncEmbeddingClient_AsyncEmbeddingClient20___generate_embeddingNtB5_11Expectation4once
FNDA:0,_RINvMs6_NtNtNtNtCsfsPcvtvSBg5_13rag_toolchain7clients6traits52___mock_MockAsyncEmbeddingClient_AsyncEmbeddingClient20___generate_embeddingNtB6_11Expectation5timespEBe_
FNDA:0,_RINvMs6_NtNtNtNtCsfsPcvtvSBg5_13rag_toolchain7clients6traits52___mock_MockAsyncEmbeddingClient_AsyncEmbeddingClient20___generate_embeddingNtB6_11Expectation4withpEBe_
FNDA:0,_RINvMs6_NtNtNtNtCsfsPcvtvSBg5_13rag_toolchain7clients6traits52___mock_MockAsyncEmbeddingClient_AsyncEmbeddingClient20___generate_embeddingNtB6_11Expectation5withfpEBe_
FNDA:0,_RINvMs6_NtNtNtNtCsfsPcvtvSBg5_13rag_toolchain7clients6traits52___mock_MockAsyncEmbeddingClient_AsyncEmbeddingClient20___generate_embeddingNtB6_11Expectation8withf_stpEBe_
FNDA:0,_RNvXs7_NtNtNtNtCsfsPcvtvSBg5_13rag_toolchain7clients6traits52___mock_MockAsyncEmbeddingClient_AsyncEmbeddingClient20___generate_embeddingNtB5_11ExpectationNtNtCsaYZPK01V26L_4core7default7Default7default
FNDA:0,_RNvMs8_NtNtNtNtCsfsPcvtvSBg5_13rag_toolchain7clients6traits52___mock_MockAsyncEmbeddingClient_AsyncEmbeddingClient20___generate_embeddingNtB5_12Expectations10checkpoint
FNDA:0,_RNvMs8_NtNtNtNtCsfsPcvtvSBg5_13rag_toolchain7clients6traits52___mock_MockAsyncEmbeddingClient_AsyncEmbeddingClient20___generate_embeddingNtB5_12Expectations6expect
FNDA:0,_RNvMs8_NtNtNtNtCsfsPcvtvSBg5_13rag_toolchain7clients6traits52___mock_MockAsyncEmbeddingClient_AsyncEmbeddingClient20___generate_embeddingNtB5_12Expectations3new
FNDA:0,_RNvXs9_NtNtNtNtCsfsPcvtvSBg5_13rag_toolchain7clients6traits52___mock_MockAsyncEmbeddingClient_AsyncEmbeddingClient20___generate_embeddingNtB5_12ExpectationsNtNtCsaYZPK01V26L_4core7default7Default7default
FNDA:0,_RNvMsa_NtNtNtNtCsfsPcvtvSBg5_13rag_toolchain7clients6traits52___mock_MockAsyncEmbeddingClient_AsyncEmbeddingClient20___generate_embeddingNtB5_12Expectations4call
FNDA:0,_RNCNvMsa_NtNtNtNtCsfsPcvtvSBg5_13rag_toolchain7clients6traits52___mock_MockAsyncEmbeddingClient_AsyncEmbeddingClient20___generate_embeddingNtB7_12Expectations4call0Bf_
FNDA:0,_RNCNvMsa_NtNtNtNtCsfsPcvtvSBg5_13rag_toolchain7clients6traits52___mock_MockAsyncEmbeddingClient_AsyncEmbeddingClient20___generate_embeddingNtB7_12Expectations4calls_0Bf_
FNDA:0,_RNvMNtNtNtNtCsfsPcvtvSBg5_13rag_toolchain7clients6traits52___mock_MockAsyncEmbeddingClient_AsyncEmbeddingClient21___generate_embeddingsNtB2_5Rfunc8call_mut
FNDA:0,_RNvXs_NtNtNtNtCsfsPcvtvSBg5_13rag_toolchain7clients6traits52___mock_MockAsyncEmbeddingClient_AsyncEmbeddingClient21___generate_embeddingsNtB4_5RfuncNtNtCsaYZPK01V26L_4core7default7Default7default
FNDA:0,_RNvMs0_NtNtNtNtCsfsPcvtvSBg5_13rag_toolchain7clients6traits52___mock_MockAsyncEmbeddingClient_AsyncEmbeddingClient21___generate_embeddingsNtB5_7Matcher7matches
FNDA:0,_RNCNvMs0_NtNtNtNtCsfsPcvtvSBg5_13rag_toolchain7clients6traits52___mock_MockAsyncEmbeddingClient_AsyncEmbeddingClient21___generate_embeddingsNtB7_7Matcher7matches0Bf_
FNDA:0,_RNvXs1_NtNtNtNtCsfsPcvtvSBg5_13rag_toolchain7clients6traits52___mock_MockAsyncEmbeddingClient_AsyncEmbeddingClient21___generate_embeddingsNtB5_7MatcherNtNtCsaYZPK01V26L_4core7default7Default7default
FNDA:0,_RNvXs2_NtNtNtNtCsfsPcvtvSBg5_13rag_toolchain7clients6traits52___mock_MockAsyncEmbeddingClient_AsyncEmbeddingClient21___generate_embeddingsNtB5_7MatcherNtNtCsaYZPK01V26L_4core3fmt7Display3fmt
FNDA:0,_RNvXs3_NtNtNtNtCsfsPcvtvSBg5_13rag_toolchain7clients6traits52___mock_MockAsyncEmbeddingClient_AsyncEmbeddingClient21___generate_embeddingsNtB5_6CommonNtNtCsaYZPK01V26L_4core7default7Default7default
FNDA:0,_RNvMs4_NtNtNtNtCsfsPcvtvSBg5_13rag_toolchain7clients6traits52___mock_MockAsyncEmbeddingClient_AsyncEmbeddingClient21___generate_embeddingsNtB5_6Common4call
FNDA:0,_RNCNvMs4_NtNtNtNtCsfsPcvtvSBg5_13rag_toolchain7clients6traits52___mock_MockAsyncEmbeddingClient_AsyncEmbeddingClient21___generate_embeddingsNtB7_6Common4call0Bf_
FNDA:0,_RNvMs4_NtNtNtNtCsfsPcvtvSBg5_13rag_toolchain7clients6traits52___mock_MockAsyncEmbeddingClient_AsyncEmbeddingClient21___generate_embeddingsNtB5_6Common11in_sequence
FNDA:0,_RNvMs4_NtNtNtNtCsfsPcvtvSBg5_13rag_toolchain7clients6traits52___mock_MockAsyncEmbeddingClient_AsyncEmbeddingClient21___generate_embeddingsNtB5_6Common7is_done
FNDA:0,_RNvMs4_NtNtNtNtCsfsPcvtvSBg5_13rag_toolchain7clients6traits52___mock_MockAsyncEmbeddingClient_AsyncEmbeddingClient21___generate_embeddingsNtB5_6Common7matches
FNDA:0,_RNvMs4_NtNtNtNtCsfsPcvtvSBg5_13rag_toolchain7clients6traits52___mock_MockAsyncEmbeddingClient_AsyncEmbeddingClient21___generate_embeddingsNtB5_6Common5never
FNDA:0,_RNvMs4_NtNtNtNtCsfsPcvtvSBg5_13rag_toolchain7clients6traits52___mock_MockAsyncEmbeddingClient_AsyncEmbeddingClient21___generate_embeddingsNtB5_6Common16satisfy_sequence
FNDA:0,_RINvMs4_NtNtNtNtCsfsPcvtvSBg5_13rag_toolchain7clients6traits52___mock_MockAsyncEmbeddingClient_AsyncEmbeddingClient21___generate_embeddingsNtB6_6Common5timespEBe_
FNDA:0,_RINvMs4_NtNtNtNtCsfsPcvtvSBg5_13rag_toolchain7clients6traits52___mock_MockAsyncEmbeddingClient_AsyncEmbeddingClient21___generate_embeddingsNtB6_6Common4withpEBe_
FNDA:0,_RINvMs4_NtNtNtNtCsfsPcvtvSBg5_13rag_toolchain7clients6traits52___mock_MockAsyncEmbeddingClient_AsyncEmbeddingClient21___generate_embeddingsNtB6_6Common5withfpEBe_
FNDA:0,_RINvMs4_NtNtNtNtCsfsPcvtvSBg5_13rag_toolchain7clients6traits52___mock_MockAsyncEmbeddingClient_AsyncEmbeddingClient21___generate_embeddingsNtB6_6Common8withf_stpEBe_
FNDA:0,_RNvMs4_NtNtNtNtCsfsPcvtvSBg5_13rag_toolchain7clients6traits52___mock_MockAsyncEmbeddingClient_AsyncEmbeddingClient21___generate_embeddingsNtB5_6Common15verify_sequence
FNDA:0,_RNvXs5_NtNtNtNtCsfsPcvtvSBg5_13rag_toolchain7clients6traits52___mock_MockAsyncEmbeddingClient_AsyncEmbeddingClient21___generate_embeddingsNtB5_6CommonNtNtNtCsaYZPK01V26L_4core3ops4drop4Drop4drop
FNDA:0,_RNvMs6_NtNtNtNtCsfsPcvtvSBg5_13rag_toolchain7clients6traits52___mock_MockAsyncEmbeddingClient_AsyncEmbeddingClient21___generate_embeddingsNtB5_11Expectation4call
FNDA:0,_RNCNvMs6_NtNtNtNtCsfsPcvtvSBg5_13rag_toolchain7clients6traits52___mock_MockAsyncEmbeddingClient_AsyncEmbeddingClient21___generate_embeddingsNtB7_11Expectation4call0Bf_
FNDA:0,_RINvMs6_NtNtNtNtCsfsPcvtvSBg5_13rag_toolchain7clients6traits52___mock_MockAsyncEmbeddingClient_AsyncEmbeddingClient21___generate_embeddingsNtB6_11Expectation12return_constpEBe_
FNDA:0,_RNCINvMs6_NtNtNtNtCsfsPcvtvSBg5_13rag_toolchain7clients6traits52___mock_MockAsyncEmbeddingClient_AsyncEmbeddingClient21___generate_embeddingsNtB8_11Expectation12return_constpE0Bg_
FNDA:0,_RINvMs6_NtNtNtNtCsfsPcvtvSBg5_13rag_toolchain7clients6traits52___mock_MockAsyncEmbeddingClient_AsyncEmbeddingClient21___generate_embeddingsNtB6_11Expectation15return_const_stpEBe_
FNDA:0,_RNCINvMs6_NtNtNtNtCsfsPcvtvSBg5_13rag_toolchain7clients6traits52___mock_MockAsyncEmbeddingClient_AsyncEmbeddingClient21___generate_embeddingsNtB8_11Expectation15return_const_stpE0Bg_
FNDA:0,_RINvMs6_NtNtNtNtCsfsPcvtvSBg5_13rag_toolchain7clients6traits52___mock_MockAsyncEmbeddingClient_AsyncEmbeddingClient21___generate_embeddingsNtB6_11Expectation11return_oncepEBe_
FNDA:0,_RINvMs6_NtNtNtNtCsfsPcvtvSBg5_13rag_toolchain7clients6traits52___mock_MockAsyncEmbeddingClient_AsyncEmbeddingClient21___generate_embeddingsNtB6_11Expectation14return_once_stpEBe_
FNDA:0,_RINvMs6_NtNtNtNtCsfsPcvtvSBg5_13rag_toolchain7clients6traits52___mock_MockAsyncEmbeddingClient_AsyncEmbeddingClient21___generate_embeddingsNtB6_11Expectation9returningpEBe_
FNDA:0,_RINvMs6_NtNtNtNtCsfsPcvtvSBg5_13rag_toolchain7clients6traits52___mock_MockAsyncEmbeddingClient_AsyncEmbeddingClient21___generate_embeddingsNtB6_11Expectation12returning_stpEBe_
FNDA:0,_RNvMs6_NtNtNtNtCsfsPcvtvSBg5_13rag_toolchain7clients6traits52___mock_MockAsyncEmbeddingClient_AsyncEmbeddingClient21___generate_embeddingsNtB5_11Expectation11in_sequence
FNDA:0,_RNvMs6_NtNtNtNtCsfsPcvtvSBg5_13rag_toolchain7clients6traits52___mock_MockAsyncEmbeddingClient_AsyncEmbeddingClient21___generate_embeddingsNtB5_11Expectation7is_done
FNDA:0,_RNvMs6_NtNtNtNtCsfsPcvtvSBg5_13rag_toolchain7clients6traits52___mock_MockAsyncEmbeddingClient_AsyncEmbeddingClient21___generate_embeddingsNtB5_11Expectation7matches
FNDA:0,_RNvMs6_NtNtNtNtCsfsPcvtvSBg5_13rag_toolchain7clients6traits52___mock_MockAsyncEmbeddingClient_AsyncEmbeddingClient21___generate_embeddingsNtB5_11Expectation5never
FNDA:0,_RNvMs6_NtNtNtNtCsfsPcvtvSBg5_13rag_toolchain7clients6traits52___mock_MockAsyncEmbeddingClient_AsyncEmbeddingClient21___generate_embeddingsNtB5_11Expectation3new
FNDA:0,_RNvMs6_NtNtNtNtCsfsPcvtvSBg5_13rag_toolchain7clients6traits52___mock_MockAsyncEmbeddingClient_AsyncEmbeddingClient21___generate_embeddingsNtB5_11Expectation4once
FNDA:0,_RINvMs6_NtNtNtNtCsfsPcvtvSBg5_13rag_toolchain7clients6traits52___mock_MockAsyncEmbeddingClient_AsyncEmbeddingClient21___generate_embeddingsNtB6_11Expectation5timespEBe_
FNDA:0,_RINvMs6_NtNtNtNtCsfsPcvtvSBg5_13rag_toolchain7clients6traits52___mock_MockAsyncEmbeddingClient_AsyncEmbeddingClient21___generate_embeddingsNtB6_11Expectation4withpEBe_
FNDA:0,_RINvMs6_NtNtNtNtCsfsPcvtvSBg5_13rag_toolchain7clients6traits52___mock_MockAsyncEmbeddingClient_AsyncEmbeddingClient21___generate_embeddingsNtB6_11Expectation5withfpEBe_
FNDA:0,_RINvMs6_NtNtNtNtCsfsPcvtvSBg5_13rag_toolchain7clients6traits52___mock_MockAsyncEmbeddingClient_AsyncEmbeddingClient21___generate_embeddingsNtB6_11Expectation8withf_stpEBe_
FNDA:0,_RNvXs7_NtNtNtNtCsfsPcvtvSBg5_13rag_toolchain7clients6traits52___mock_MockAsyncEmbeddingClient_AsyncEmbeddingClient21___generate_embeddingsNtB5_11ExpectationNtNtCsaYZPK01V26L_4core7default7Default7default
FNDA:0,_RNvMs8_NtNtNtNtCsfsPcvtvSBg5_13rag_toolchain7clients6traits52___mock_MockAsyncEmbeddingClient_AsyncEmbeddingClient21___generate_embeddingsNtB5_12Expectations10checkpoint
FNDA:0,_RNvMs8_NtNtNtNtCsfsPcvtvSBg5_13rag_toolchain7clients6traits52___mock_MockAsyncEmbeddingClient_AsyncEmbeddingClient21___generate_embeddingsNtB5_12Expectations6expect
FNDA:0,_RNvMs8_NtNtNtNtCsfsPcvtvSBg5_13rag_toolchain7clients6traits52___mock_MockAsyncEmbeddingClient_AsyncEmbeddingClient21___generate_embeddingsNtB5_12Expectations3new
FNDA:0,_RNvXs9_NtNtNtNtCsfsPcvtvSBg5_13rag_toolchain7clients6traits52___mock_MockAsyncEmbeddingClient_AsyncEmbeddingClient21___generate_embeddingsNtB5_12ExpectationsNtNtCsaYZPK01V26L_4core7default7Default7default
FNDA:0,_RNvMsa_NtNtNtNtCsfsPcvtvSBg5_13rag_toolchain7clients6traits52___mock_MockAsyncEmbeddingClient_AsyncEmbeddingClient21___generate_embeddingsNtB5_12Expectations4call
FNDA:0,_RNCNvMsa_NtNtNtNtCsfsPcvtvSBg5_13rag_toolchain7clients6traits52___mock_MockAsyncEmbeddingClient_AsyncEmbeddingClient21___generate_embeddingsNtB7_12Expectations4call0Bf_
FNDA:0,_RNCNvMsa_NtNtNtNtCsfsPcvtvSBg5_13rag_toolchain7clients6traits52___mock_MockAsyncEmbeddingClient_AsyncEmbeddingClient21___generate_embeddingsNtB7_12Expectations4calls_0Bf_
FNDA:0,_RNvXs0_NtNtCsfsPcvtvSBg5_13rag_toolchain7clients6traitsNtB5_45MockAsyncEmbeddingClient_AsyncEmbeddingClientNtNtCsaYZPK01V26L_4core7default7Default7default
FNDA:0,_RNvMs1_NtNtCsfsPcvtvSBg5_13rag_toolchain7clients6traitsNtB5_45MockAsyncEmbeddingClient_AsyncEmbeddingClient10checkpoint
FNDA:0,_RNvMs2_NtNtCsfsPcvtvSBg5_13rag_toolchain7clients6traitsNtB5_24MockAsyncEmbeddingClient10checkpoint
FNDA:0,_RNvMs2_NtNtCsfsPcvtvSBg5_13rag_toolchain7clients6traitsNtB5_24MockAsyncEmbeddingClient3new
FNDA:0,_RNvXs3_NtNtCsfsPcvtvSBg5_13rag_toolchain7clients6traitsNtB5_24MockAsyncEmbeddingClientNtB5_20AsyncEmbeddingClient18generate_embedding
FNDA:0,_RNCNvXs3_NtNtCsfsPcvtvSBg5_13rag_toolchain7clients6traitsNtB7_24MockAsyncEmbeddingClientNtB7_20AsyncEmbeddingClient18generate_embedding0Bb_
FNDA:0,_RNvXs3_NtNtCsfsPcvtvSBg5_13rag_toolchain7clients6traitsNtB5_24MockAsyncEmbeddingClientNtB5_20AsyncEmbeddingClient19generate_embeddings
FNDA:0,_RNCNvXs3_NtNtCsfsPcvtvSBg5_13rag_toolchain7clients6traitsNtB7_24MockAsyncEmbeddingClientNtB7_20AsyncEmbeddingClient19generate_embeddings0Bb_
FNDA:0,_RNvMs4_NtNtCsfsPcvtvSBg5_13rag_toolchain7clients6traitsNtB5_24MockAsyncEmbeddingClient25expect_generate_embedding
FNDA:0,_RNvMs4_NtNtCsfsPcvtvSBg5_13rag_toolchain7clients6traitsNtB5_24MockAsyncEmbeddingClient26expect_generate_embeddings
FNDA:0,_RNvMs4_NtNtNtNtCsfsPcvtvSBg5_13rag_toolchain7clients6traits42___mock_MockAsyncChatClient_AsyncChatClient8___invokeNtB5_6Common11in_sequence
FNDA:0,_RNvMs4_NtNtNtNtCsfsPcvtvSBg5_13rag_toolchain7clients6traits42___mock_MockAsyncChatClient_AsyncChatClient8___invokeNtB5_6Common5never
FNDA:0,_RINvMs4_NtNtNtNtCsfsPcvtvSBg5_13rag_toolchain7clients6traits42___mock_MockAsyncChatClient_AsyncChatClient8___invokeNtB6_6Common5withfpEBe_
FNDA:0,_RINvMs4_NtNtNtNtCsfsPcvtvSBg5_13rag_toolchain7clients6traits42___mock_MockAsyncChatClient_AsyncChatClient8___invokeNtB6_6Common8withf_stpEBe_
FNDA:0,_RINvMs6_NtNtNtNtCsfsPcvtvSBg5_13rag_toolchain7clients6traits42___mock_MockAsyncChatClient_AsyncChatClient8___invokeNtB6_11Expectation12return_constpEBe_
FNDA:0,_RNCINvMs6_NtNtNtNtCsfsPcvtvSBg5_13rag_toolchain7clients6traits42___mock_MockAsyncChatClient_AsyncChatClient8___invokeNtB8_11Expectation12return_constpE0Bg_
FNDA:0,_RINvMs6_NtNtNtNtCsfsPcvtvSBg5_13rag_toolchain7clients6traits42___mock_MockAsyncChatClient_AsyncChatClient8___invokeNtB6_11Expectation15return_const_stpEBe_
FNDA:0,_RNCINvMs6_NtNtNtNtCsfsPcvtvSBg5_13rag_toolchain7clients6traits42___mock_MockAsyncChatClient_AsyncChatClient8___invokeNtB8_11Expectation15return_const_stpE0Bg_
FNDA:0,_RINvMs6_NtNtNtNtCsfsPcvtvSBg5_13rag_toolchain7clients6traits42___mock_MockAsyncChatClient_AsyncChatClient8___invokeNtB6_11Expectation11return_oncepEBe_
FNDA:0,_RINvMs6_NtNtNtNtCsfsPcvtvSBg5_13rag_toolchain7clients6traits42___mock_MockAsyncChatClient_AsyncChatClient8___invokeNtB6_11Expectation14return_once_stpEBe_
FNDA:0,_RINvMs6_NtNtNtNtCsfsPcvtvSBg5_13rag_toolchain7clients6traits42___mock_MockAsyncChatClient_AsyncChatClient8___invokeNtB6_11Expectation12returning_stpEBe_
FNDA:0,_RNvMs6_NtNtNtNtCsfsPcvtvSBg5_13rag_toolchain7clients6traits42___mock_MockAsyncChatClient_AsyncChatClient8___invokeNtB5_11Expectation11in_sequence
FNDA:0,_RNvMs6_NtNtNtNtCsfsPcvtvSBg5_13rag_toolchain7clients6traits42___mock_MockAsyncChatClient_AsyncChatClient8___invokeNtB5_11Expectation5never
FNDA:0,_RNvMs6_NtNtNtNtCsfsPcvtvSBg5_13rag_toolchain7clients6traits42___mock_MockAsyncChatClient_AsyncChatClient8___invokeNtB5_11Expectation3new
FNDA:0,_RNvMs6_NtNtNtNtCsfsPcvtvSBg5_13rag_toolchain7clients6traits42___mock_MockAsyncChatClient_AsyncChatClient8___invokeNtB5_11Expectation4once
FNDA:0,_RINvMs6_NtNtNtNtCsfsPcvtvSBg5_13rag_toolchain7clients6traits42___mock_MockAsyncChatClient_AsyncChatClient8___invokeNtB6_11Expectation5withfpEBe_
FNDA:0,_RINvMs6_NtNtNtNtCsfsPcvtvSBg5_13rag_toolchain7clients6traits42___mock_MockAsyncChatClient_AsyncChatClient8___invokeNtB6_11Expectation8withf_stpEBe_
FNDA:0,_RNvMs8_NtNtNtNtCsfsPcvtvSBg5_13rag_toolchain7clients6traits42___mock_MockAsyncChatClient_AsyncChatClient8___invokeNtB5_12Expectations10checkpoint
FNDA:0,_RNvMs8_NtNtNtNtCsfsPcvtvSBg5_13rag_toolchain7clients6traits42___mock_MockAsyncChatClient_AsyncChatClient8___invokeNtB5_12Expectations3new
FNDA:0,_RNvMs7_NtNtCsfsPcvtvSBg5_13rag_toolchain7clients6traitsNtB5_35MockAsyncChatClient_AsyncChatClient10checkpoint
FNDA:0,_RNvMs8_NtNtCsfsPcvtvSBg5_13rag_toolchain7clients6traitsNtB5_19MockAsyncChatClient10checkpoint
FNDA:0,_RNvMs4_NtNtNtNtCsfsPcvtvSBg5_13rag_toolchain7clients6traits58___mock_MockAsyncStreamedChatClient_AsyncStreamedChatClient15___invoke_streamNtB5_6Common11in_sequence
FNDA:0,_RNvMs4_NtNtNtNtCsfsPcvtvSBg5_13rag_toolchain7clients6traits58___mock_MockAsyncStreamedChatClient_AsyncStreamedChatClient15___invoke_streamNtB5_6Common5never
FNDA:0,_RINvMs4_NtNtNtNtCsfsPcvtvSBg5_13rag_toolchain7clients6traits58___mock_MockAsyncStreamedChatClient_AsyncStreamedChatClient15___invoke_streamNtB6_6Common5timespEBe_
FNDA:0,_RINvMs4_NtNtNtNtCsfsPcvtvSBg5_13rag_toolchain7clients6traits58___mock_MockAsyncStreamedChatClient_AsyncStreamedChatClient15___invoke_streamNtB6_6Common5withfpEBe_
FNDA:0,_RINvMs4_NtNtNtNtCsfsPcvtvSBg5_13rag_toolchain7clients6traits58___mock_MockAsyncStreamedChatClient_AsyncStreamedChatClient15___invoke_streamNtB6_6Common8withf_stpEBe_
FNDA:0,_RINvMs6_NtNtNtNtCsfsPcvtvSBg5_13rag_toolchain7clients6traits58___mock_MockAsyncStreamedChatClient_AsyncStreamedChatClient15___invoke_streamNtB6_11Expectation12return_constpEBe_
FNDA:0,_RNCINvMs6_NtNtNtNtCsfsPcvtvSBg5_13rag_toolchain7clients6traits58___mock_MockAsyncStreamedChatClient_AsyncStreamedChatClient15___invoke_streamNtB8_11Expectation12return_constpE0Bg_
FNDA:0,_RINvMs6_NtNtNtNtCsfsPcvtvSBg5_13rag_toolchain7clients6traits58___mock_MockAsyncStreamedChatClient_AsyncStreamedChatClient15___invoke_streamNtB6_11Expectation15return_const_stpEBe_
FNDA:0,_RNCINvMs6_NtNtNtNtCsfsPcvtvSBg5_13rag_toolchain7clients6traits58___mock_MockAsyncStreamedChatClient_AsyncStreamedChatClient15___invoke_streamNtB8_11Expectation15return_const_stpE0Bg_
FNDA:0,_RINvMs6_NtNtNtNtCsfsPcvtvSBg5_13rag_toolchain7clients6traits58___mock_MockAsyncStreamedChatClient_AsyncStreamedChatClient15___invoke_streamNtB6_11Expectation11return_oncepEBe_
FNDA:0,_RINvMs6_NtNtNtNtCsfsPcvtvSBg5_13rag_toolchain7clients6traits58___mock_MockAsyncStreamedChatClient_AsyncStreamedChatClient15___invoke_streamNtB6_11Expectation14return_once_stpEBe_
FNDA:0,_RINvMs6_NtNtNtNtCsfsPcvtvSBg5_13rag_toolchain7clients6traits58___mock_MockAsyncStreamedChatClient_AsyncStreamedChatClient15___invoke_streamNtB6_11Expectation12returning_stpEBe_
FNDA:0,_RNvMs6_NtNtNtNtCsfsPcvtvSBg5_13rag_toolchain7clients6traits58___mock_MockAsyncStreamedChatClient_AsyncStreamedChatClient15___invoke_streamNtB5_11Expectation11in_sequence
FNDA:0,_RNvMs6_NtNtNtNtCsfsPcvtvSBg5_13rag_toolchain7clients6traits58___mock_MockAsyncStreamedChatClient_AsyncStreamedChatClient15___invoke_streamNtB5_11Expectation5never
FNDA:0,_RNvMs6_NtNtNtNtCsfsPcvtvSBg5_13rag_toolchain7clients6traits58___mock_MockAsyncStreamedChatClient_AsyncStreamedChatClient15___invoke_streamNtB5_11Expectation3new
FNDA:0,_RNvMs6_NtNtNtNtCsfsPcvtvSBg5_13rag_toolchain7clients6traits58___mock_MockAsyncStreamedChatClient_AsyncStreamedChatClient15___invoke_streamNtB5_11Expectation4once
FNDA:0,_RINvMs6_NtNtNtNtCsfsPcvtvSBg5_13rag_toolchain7clients6traits58___mock_MockAsyncStreamedChatClient_AsyncStreamedChatClient15___invoke_streamNtB6_11Expectation5timespEBe_
FNDA:0,_RINvMs6_NtNtNtNtCsfsPcvtvSBg5_13rag_toolchain7clients6traits58___mock_MockAsyncStreamedChatClient_AsyncStreamedChatClient15___invoke_streamNtB6_11Expectation5withfpEBe_
FNDA:0,_RINvMs6_NtNtNtNtCsfsPcvtvSBg5_13rag_toolchain7clients6traits58___mock_MockAsyncStreamedChatClient_AsyncStreamedChatClient15___invoke_streamNtB6_11Expectation8withf_stpEBe_
FNDA:0,_RNvMs8_NtNtNtNtCsfsPcvtvSBg5_13rag_toolchain7clients6traits58___mock_MockAsyncStreamedChatClient_AsyncStreamedChatClient15___invoke_streamNtB5_12Expectations10checkpoint
FNDA:0,_RNvMs8_NtNtNtNtCsfsPcvtvSBg5_13rag_toolchain7clients6traits58___mock_MockAsyncStreamedChatClient_AsyncStreamedChatClient15___invoke_streamNtB5_12Expectations3new
FNDA:0,_RNvMsd_NtNtCsfsPcvtvSBg5_13rag_toolchain7clients6traitsNtB5_51MockAsyncStreamedChatClient_AsyncStreamedChatClient10checkpoint
FNDA:0,_RNvMse_NtNtCsfsPcvtvSBg5_13rag_toolchain7clients6traitsNtB5_27MockAsyncStreamedChatClient10checkpoint
FNDA:0,_RNvMs4_NtNtNtNtCsfsPcvtvSBg5_13rag_toolchain7clients6traits52___mock_MockChatCompletionStream_ChatCompletionStream6___nextNtB5_6Common11in_sequence
FNDA:0,_RNvMs4_NtNtNtNtCsfsPcvtvSBg5_13rag_toolchain7clients6traits52___mock_MockChatCompletionStream_ChatCompletionStream6___nextNtB5_6Common5never
FNDA:0,_RINvMs4_NtNtNtNtCsfsPcvtvSBg5_13rag_toolchain7clients6traits52___mock_MockChatCompletionStream_ChatCompletionStream6___nextNtB6_6Common5timespEBe_
FNDA:0,_RNvMs4_NtNtNtNtCsfsPcvtvSBg5_13rag_toolchain7clients6traits52___mock_MockChatCompletionStream_ChatCompletionStream6___nextNtB5_6Common4with
FNDA:0,_RINvMs4_NtNtNtNtCsfsPcvtvSBg5_13rag_toolchain7clients6traits52___mock_MockChatCompletionStream_ChatCompletionStream6___nextNtB6_6Common5withfpEBe_
FNDA:0,_RINvMs4_NtNtNtNtCsfsPcvtvSBg5_13rag_toolchain7clients6traits52___mock_MockChatCompletionStream_ChatCompletionStream6___nextNtB6_6Common8withf_stpEBe_
FNDA:0,_RINvMs6_NtNtNtNtCsfsPcvtvSBg5_13rag_toolchain7clients6traits52___mock_MockChatCompletionStream_ChatCompletionStream6___nextNtB6_11Expectation12return_constpEBe_
FNDA:0,_RNCINvMs6_NtNtNtNtCsfsPcvtvSBg5_13rag_toolchain7clients6traits52___mock_MockChatCompletionStream_ChatCompletionStream6___nextNtB8_11Expectation12return_constpE0Bg_
FNDA:0,_RINvMs6_NtNtNtNtCsfsPcvtvSBg5_13rag_toolchain7clients6traits52___mock_MockChatCompletionStream_ChatCompletionStream6___nextNtB6_11Expectation15return_const_stpEBe_
FNDA:0,_RNCINvMs6_NtNtNtNtCsfsPcvtvSBg5_13rag_toolchain7clients6traits52___mock_MockChatCompletionStream_ChatCompletionStream6___nextNtB8_11Expectation15return_const_stpE0Bg_
FNDA:0,_RINvMs6_NtNtNtNtCsfsPcvtvSBg5_13rag_toolchain7clients6traits52___mock_MockChatCompletionStream_ChatCompletionStream6___nextNtB6_11Expectation11return_oncepEBe_
FNDA:0,_RINvMs6_NtNtNtNtCsfsPcvtvSBg5_13rag_toolchain7clients6traits52___mock_MockChatCompletionStream_ChatCompletionStream6___nextNtB6_11Expectation14return_once_stpEBe_
FNDA:0,_RINvMs6_NtNtNtNtCsfsPcvtvSBg5_13rag_toolchain7clients6traits52___mock_MockChatCompletionStream_ChatCompletionStream6___nextNtB6_11Expectation12returning_stpEBe_
FNDA:0,_RNvMs6_NtNtNtNtCsfsPcvtvSBg5_13rag_toolchain7clients6traits52___mock_MockChatCompletionStream_ChatCompletionStream6___nextNtB5_11Expectation11in_sequence
FNDA:0,_RNvMs6_NtNtNtNtCsfsPcvtvSBg5_13rag_toolchain7clients6traits52___mock_MockChatCompletionStream_ChatCompletionStream6___nextNtB5_11Expectation5never
FNDA:0,_RNvMs6_NtNtNtNtCsfsPcvtvSBg5_13rag_toolchain7clients6traits52___mock_MockChatCompletionStream_ChatCompletionStream6___nextNtB5_11Expectation3new
FNDA:0,_RNvMs6_NtNtNtNtCsfsPcvtvSBg5_13rag_toolchain7clients6traits52___mock_MockChatCompletionStream_ChatCompletionStream6___nextNtB5_11Expectation4once
FNDA:0,_RINvMs6_NtNtNtNtCsfsPcvtvSBg5_13rag_toolchain7clients6traits52___mock_MockChatCompletionStream_ChatCompletionStream6___nextNtB6_11Expectation5timespEBe_
FNDA:0,_RNvMs6_NtNtNtNtCsfsPcvtvSBg5_13rag_toolchain7clients6traits52___mock_MockChatCompletionStream_ChatCompletionStream6___nextNtB5_11Expectation4with
FNDA:0,_RINvMs6_NtNtNtNtCsfsPcvtvSBg5_13rag_toolchain7clients6traits52___mock_MockChatCompletionStream_ChatCompletionStream6___nextNtB6_11Expectation5withfpEBe_
FNDA:0,_RINvMs6_NtNtNtNtCsfsPcvtvSBg5_13rag_toolchain7clients6traits52___mock_MockChatCompletionStream_ChatCompletionStream6___nextNtB6_11Expectation8withf_stpEBe_
FNDA:0,_RNvMs8_NtNtNtNtCsfsPcvtvSBg5_13rag_toolchain7clients6traits52___mock_MockChatCompletionStream_ChatCompletionStream6___nextNtB5_12Expectations10checkpoint
FNDA:0,_RNvMs8_NtNtNtNtCsfsPcvtvSBg5_13rag_toolchain7clients6traits52___mock_MockChatCompletionStream_ChatCompletionStream6___nextNtB5_12Expectations3new
FNDA:0,_RNvMsj_NtNtCsfsPcvtvSBg5_13rag_toolchain7clients6traitsNtB5_45MockChatCompletionStream_ChatCompletionStream10checkpoint
FNDA:0,_RNvMsk_NtNtCsfsPcvtvSBg5_13rag_toolchain7clients6traitsNtB5_24MockChatCompletionStream10checkpoint
FNDA:0,_RNvXNtNtCsfsPcvtvSBg5_13rag_toolchain7clients6traitsNtB2_19MockAsyncChatClientNtNtCsaYZPK01V26L_4core5clone5Clone5clone
FNDA:0,_RNCNvMs0_NtNtNtNtCsfsPcvtvSBg5_13rag_toolchain7clients6traits52___mock_MockChatCompletionStream_ChatCompletionStream6___nextNtB7_7Matcher7matches0Bf_
FNDA:0,_RNCNvMs4_NtNtNtNtCsfsPcvtvSBg5_13rag_toolchain7clients6traits52___mock_MockChatCompletionStream_ChatCompletionStream6___nextNtB7_6Common4call0Bf_
FNDA:0,_RNCNvMs6_NtNtNtNtCsfsPcvtvSBg5_13rag_toolchain7clients6traits52___mock_MockChatCompletionStream_ChatCompletionStream6___nextNtB7_11Expectation4call0Bf_
FNDA:1,_RINvMs6_NtNtNtNtCsfsPcvtvSBg5_13rag_toolchain7clients6traits52___mock_MockChatCompletionStream_ChatCompletionStream6___nextNtB6_11Expectation9returningNCNCNCNvNtNtNtBe_6chains15basic_rag_chain21basic_rag_chain_testss_28test_streamed_chain_succeeds0s_00EBe_
FNDA:1,_RNCNvMsa_NtNtNtNtCsfsPcvtvSBg5_13rag_toolchain7clients6traits52___mock_MockChatCompletionStream_ChatCompletionStream6___nextNtB7_12Expectations4call0Bf_
FNDA:1,_RNCNvMsa_NtNtNtNtCsfsPcvtvSBg5_13rag_toolchain7clients6traits52___mock_MockChatCompletionStream_ChatCompletionStream6___nextNtB7_12Expectations4calls_0Bf_
FNDA:1,_RNCNvMs0_NtNtNtNtCsfsPcvtvSBg5_13rag_toolchain7clients6traits58___mock_MockAsyncStreamedChatClient_AsyncStreamedChatClient15___invoke_streamNtB7_7Matcher7matches0Bf_
FNDA:0,_RNCNvMs4_NtNtNtNtCsfsPcvtvSBg5_13rag_toolchain7clients6traits58___mock_MockAsyncStreamedChatClient_AsyncStreamedChatClient15___invoke_streamNtB7_6Common4call0Bf_
FNDA:1,_RINvMs4_NtNtNtNtCsfsPcvtvSBg5_13rag_toolchain7clients6traits58___mock_MockAsyncStreamedChatClient_AsyncStreamedChatClient15___invoke_streamNtB6_6Common4withINtNtCs7xKSZ3o61tT_10predicates3ord11EqPredicateINtNtCsdZExvAaxgia_5alloc3vec3VecNtNtBc_5types13PromptMessageEEEBe_
FNDA:0,_RNCNvMs6_NtNtNtNtCsfsPcvtvSBg5_13rag_toolchain7clients6traits58___mock_MockAsyncStreamedChatClient_AsyncStreamedChatClient15___invoke_streamNtB7_11Expectation4call0Bf_
FNDA:1,_RINvMs6_NtNtNtNtCsfsPcvtvSBg5_13rag_toolchain7clients6traits58___mock_MockAsyncStreamedChatClient_AsyncStreamedChatClient15___invoke_streamNtB6_11Expectation9returningNCNCNvNtNtNtBe_6chains15basic_rag_chain21basic_rag_chain_testss_28test_streamed_chain_succeeds0s_0EBe_
FNDA:1,_RINvMs6_NtNtNtNtCsfsPcvtvSBg5_13rag_toolchain7clients6traits58___mock_MockAsyncStreamedChatClient_AsyncStreamedChatClient15___invoke_streamNtB6_11Expectation4withINtNtCs7xKSZ3o61tT_10predicates3ord11EqPredicateINtNtCsdZExvAaxgia_5alloc3vec3VecNtNtBc_5types13PromptMessageEEEBe_
FNDA:1,_RNCNvMsa_NtNtNtNtCsfsPcvtvSBg5_13rag_toolchain7clients6traits58___mock_MockAsyncStreamedChatClient_AsyncStreamedChatClient15___invoke_streamNtB7_12Expectations4call0Bf_
FNDA:1,_RNCNvMsa_NtNtNtNtCsfsPcvtvSBg5_13rag_toolchain7clients6traits58___mock_MockAsyncStreamedChatClient_AsyncStreamedChatClient15___invoke_streamNtB7_12Expectations4calls_0Bf_
FNDA:3,_RNCNvXs9_NtNtCsfsPcvtvSBg5_13rag_toolchain7clients6traitsNtB7_19MockAsyncChatClientNtB7_15AsyncChatClient6invoke0Bb_
FNDA:1,_RNCNvXsf_NtNtCsfsPcvtvSBg5_13rag_toolchain7clients6traitsNtB7_27MockAsyncStreamedChatClientNtB7_23AsyncStreamedChatClient13invoke_stream0Bb_
FNDA:1,_RNCNvXsl_NtNtCsfsPcvtvSBg5_13rag_toolchain7clients6traitsNtB7_24MockChatCompletionStreamNtB7_20ChatCompletionStream4next0Bb_
FNDA:1,_RNvMNtNtNtNtCsfsPcvtvSBg5_13rag_toolchain7clients6traits52___mock_MockChatCompletionStream_ChatCompletionStream6___nextNtB2_5Rfunc8call_mut
FNDA:1,_RNvXs_NtNtNtNtCsfsPcvtvSBg5_13rag_toolchain7clients6traits52___mock_MockChatCompletionStream_ChatCompletionStream6___nextNtB4_5RfuncNtNtCsaYZPK01V26L_4core7default7Default7default
FNDA:1,_RNvMs0_NtNtNtNtCsfsPcvtvSBg5_13rag_toolchain7clients6traits52___mock_MockChatCompletionStream_ChatCompletionStream6___nextNtB5_7Matcher7matches
FNDA:1,_RNvXs1_NtNtNtNtCsfsPcvtvSBg5_13rag_toolchain7clients6traits52___mock_MockChatCompletionStream_ChatCompletionStream6___nextNtB5_7MatcherNtNtCsaYZPK01V26L_4core7default7Default7default
FNDA:1,_RNvXs2_NtNtNtNtCsfsPcvtvSBg5_13rag_toolchain7clients6traits52___mock_MockChatCompletionStream_ChatCompletionStream6___nextNtB5_7MatcherNtNtCsaYZPK01V26L_4core3fmt7Display3fmt
FNDA:1,_RNvXs3_NtNtNtNtCsfsPcvtvSBg5_13rag_toolchain7clients6traits52___mock_MockChatCompletionStream_ChatCompletionStream6___nextNtB5_6CommonNtNtCsaYZPK01V26L_4core7default7Default7default
FNDA:0,_RNvMs4_NtNtNtNtCsfsPcvtvSBg5_13rag_toolchain7clients6traits52___mock_MockChatCompletionStream_ChatCompletionStream6___nextNtB5_6Common4call
FNDA:1,_RNvMs4_NtNtNtNtCsfsPcvtvSBg5_13rag_toolchain7clients6traits52___mock_MockChatCompletionStream_ChatCompletionStream6___nextNtB5_6Common7is_done
FNDA:1,_RNvMs4_NtNtNtNtCsfsPcvtvSBg5_13rag_toolchain7clients6traits52___mock_MockChatCompletionStream_ChatCompletionStream6___nextNtB5_6Common7matches
FNDA:1,_RNvMs4_NtNtNtNtCsfsPcvtvSBg5_13rag_toolchain7clients6traits52___mock_MockChatCompletionStream_ChatCompletionStream6___nextNtB5_6Common16satisfy_sequence
FNDA:1,_RNvMs4_NtNtNtNtCsfsPcvtvSBg5_13rag_toolchain7clients6traits52___mock_MockChatCompletionStream_ChatCompletionStream6___nextNtB5_6Common15verify_sequence
FNDA:1,_RNvMs6_NtNtNtNtCsfsPcvtvSBg5_13rag_toolchain7clients6traits52___mock_MockChatCompletionStream_ChatCompletionStream6___nextNtB5_11Expectation4call
FNDA:1,_RNvMs6_NtNtNtNtCsfsPcvtvSBg5_13rag_toolchain7clients6traits52___mock_MockChatCompletionStream_ChatCompletionStream6___nextNtB5_11Expectation7is_done
FNDA:1,_RNvMs6_NtNtNtNtCsfsPcvtvSBg5_13rag_toolchain7clients6traits52___mock_MockChatCompletionStream_ChatCompletionStream6___nextNtB5_11Expectation7matches
FNDA:1,_RNvXs7_NtNtNtNtCsfsPcvtvSBg5_13rag_toolchain7clients6traits52___mock_MockChatCompletionStream_ChatCompletionStream6___nextNtB5_11ExpectationNtNtCsaYZPK01V26L_4core7default7Default7default
FNDA:1,_RNvMs8_NtNtNtNtCsfsPcvtvSBg5_13rag_toolchain7clients6traits52___mock_MockChatCompletionStream_ChatCompletionStream6___nextNtB5_12Expectations6expect
FNDA:1,_RNvXs9_NtNtNtNtCsfsPcvtvSBg5_13rag_toolchain7clients6traits52___mock_MockChatCompletionStream_ChatCompletionStream6___nextNtB5_12ExpectationsNtNtCsaYZPK01V26L_4core7default7Default7default
FNDA:1,_RNvMsa_NtNtNtNtCsfsPcvtvSBg5_13rag_toolchain7clients6traits52___mock_MockChatCompletionStream_ChatCompletionStream6___nextNtB5_12Expectations4call
FNDA:3,_RNvXs5_NtNtNtNtCsfsPcvtvSBg5_13rag_toolchain7clients6traits42___mock_MockAsyncChatClient_AsyncChatClient8___invokeNtB5_6CommonNtNtNtCsaYZPK01V26L_4core3ops4drop4Drop4drop
FNDA:1,_RNvXs5_NtNtNtNtCsfsPcvtvSBg5_13rag_toolchain7clients6traits58___mock_MockAsyncStreamedChatClient_AsyncStreamedChatClient15___invoke_streamNtB5_6CommonNtNtNtCsaYZPK01V26L_4core3ops4drop4Drop4drop
FNDA:1,_RNvXs5_NtNtNtNtCsfsPcvtvSBg5_13rag_toolchain7clients6traits52___mock_MockChatCompletionStream_ChatCompletionStream6___nextNtB5_6CommonNtNtNtCsaYZPK01V26L_4core3ops4drop4Drop4drop
FNDA:4,_RNCNvMs0_NtNtNtNtCsfsPcvtvSBg5_13rag_toolchain7clients6traits42___mock_MockAsyncChatClient_AsyncChatClient8___invokeNtB7_7Matcher7matches0Bf_
FNDA:0,_RNCNvMs4_NtNtNtNtCsfsPcvtvSBg5_13rag_toolchain7clients6traits42___mock_MockAsyncChatClient_AsyncChatClient8___invokeNtB7_6Common4call0Bf_
FNDA:2,_RINvMs4_NtNtNtNtCsfsPcvtvSBg5_13rag_toolchain7clients6traits42___mock_MockAsyncChatClient_AsyncChatClient8___invokeNtB6_6Common5timesjEBe_
FNDA:3,_RINvMs4_NtNtNtNtCsfsPcvtvSBg5_13rag_toolchain7clients6traits42___mock_MockAsyncChatClient_AsyncChatClient8___invokeNtB6_6Common4withINtNtCs7xKSZ3o61tT_10predicates3ord11EqPredicateINtNtCsdZExvAaxgia_5alloc3vec3VecNtNtBc_5types13PromptMessageEEEBe_
FNDA:0,_RNCNvMs6_NtNtNtNtCsfsPcvtvSBg5_13rag_toolchain7clients6traits42___mock_MockAsyncChatClient_AsyncChatClient8___invokeNtB7_11Expectation4call0Bf_
FNDA:1,_RINvMs6_NtNtNtNtCsfsPcvtvSBg5_13rag_toolchain7clients6traits42___mock_MockAsyncChatClient_AsyncChatClient8___invokeNtB6_11Expectation9returningNCNCNvNtNtNtBe_6chains15basic_rag_chain21basic_rag_chain_testss_19test_chain_succeeds0s_0EBe_
FNDA:1,_RINvMs6_NtNtNtNtCsfsPcvtvSBg5_13rag_toolchain7clients6traits42___mock_MockAsyncChatClient_AsyncChatClient8___invokeNtB6_11Expectation9returningNCNCNvNtNtNtBe_6chains18chat_history_chain24chat_history_chain_testss_23test_chat_history_chain00EBe_
FNDA:1,_RINvMs6_NtNtNtNtCsfsPcvtvSBg5_13rag_toolchain7clients6traits42___mock_MockAsyncChatClient_AsyncChatClient8___invokeNtB6_11Expectation9returningNCNCNvNtNtNtBe_6chains18chat_history_chain24chat_history_chain_testss_23test_chat_history_chain0s_0EBe_
FNDA:2,_RINvMs6_NtNtNtNtCsfsPcvtvSBg5_13rag_toolchain7clients6traits42___mock_MockAsyncChatClient_AsyncChatClient8___invokeNtB6_11Expectation5timesjEBe_
FNDA:3,_RINvMs6_NtNtNtNtCsfsPcvtvSBg5_13rag_toolchain7clients6traits42___mock_MockAsyncChatClient_AsyncChatClient8___invokeNtB6_11Expectation4withINtNtCs7xKSZ3o61tT_10predicates3ord11EqPredicateINtNtCsdZExvAaxgia_5alloc3vec3VecNtNtBc_5types13PromptMessageEEEBe_
FNDA:4,_RNCNvMsa_NtNtNtNtCsfsPcvtvSBg5_13rag_toolchain7clients6traits42___mock_MockAsyncChatClient_AsyncChatClient8___invokeNtB7_12Expectations4call0Bf_
FNDA:3,_RNCNvMsa_NtNtNtNtCsfsPcvtvSBg5_13rag_toolchain7clients6traits42___mock_MockAsyncChatClient_AsyncChatClient8___invokeNtB7_12Expectations4calls_0Bf_
FNDA:3,_RNvMNtNtNtNtCsfsPcvtvSBg5_13rag_toolchain7clients6traits42___mock_MockAsyncChatClient_AsyncChatClient8___invokeNtB2_5Rfunc8call_mut
FNDA:3,_RNvXs_NtNtNtNtCsfsPcvtvSBg5_13rag_toolchain7clients6traits42___mock_MockAsyncChatClient_AsyncChatClient8___invokeNtB4_5RfuncNtNtCsaYZPK01V26L_4core7default7Default7default
FNDA:4,_RNvMs0_NtNtNtNtCsfsPcvtvSBg5_13rag_toolchain7clients6traits42___mock_MockAsyncChatClient_AsyncChatClient8___invokeNtB5_7Matcher7matches
FNDA:3,_RNvXs1_NtNtNtNtCsfsPcvtvSBg5_13rag_toolchain7clients6traits42___mock_MockAsyncChatClient_AsyncChatClient8___invokeNtB5_7MatcherNtNtCsaYZPK01V26L_4core7default7Default7default
FNDA:3,_RNvXs2_NtNtNtNtCsfsPcvtvSBg5_13rag_toolchain7clients6traits42___mock_MockAsyncChatClient_AsyncChatClient8___invokeNtB5_7MatcherNtNtCsaYZPK01V26L_4core3fmt7Display3fmt
FNDA:3,_RNvXs3_NtNtNtNtCsfsPcvtvSBg5_13rag_toolchain7clients6traits42___mock_MockAsyncChatClient_AsyncChatClient8___invokeNtB5_6CommonNtNtCsaYZPK01V26L_4core7default7Default7default
FNDA:0,_RNvMs4_NtNtNtNtCsfsPcvtvSBg5_13rag_toolchain7clients6traits42___mock_MockAsyncChatClient_AsyncChatClient8___invokeNtB5_6Common4call
FNDA:3,_RNvMs4_NtNtNtNtCsfsPcvtvSBg5_13rag_toolchain7clients6traits42___mock_MockAsyncChatClient_AsyncChatClient8___invokeNtB5_6Common7is_done
FNDA:4,_RNvMs4_NtNtNtNtCsfsPcvtvSBg5_13rag_toolchain7clients6traits42___mock_MockAsyncChatClient_AsyncChatClient8___invokeNtB5_6Common7matches
FNDA:3,_RNvMs4_NtNtNtNtCsfsPcvtvSBg5_13rag_toolchain7clients6traits42___mock_MockAsyncChatClient_AsyncChatClient8___invokeNtB5_6Common16satisfy_sequence
FNDA:3,_RNvMs4_NtNtNtNtCsfsPcvtvSBg5_13rag_toolchain7clients6traits42___mock_MockAsyncChatClient_AsyncChatClient8___invokeNtB5_6Common15verify_sequence
FNDA:3,_RNvMs6_NtNtNtNtCsfsPcvtvSBg5_13rag_toolchain7clients6traits42___mock_MockAsyncChatClient_AsyncChatClient8___invokeNtB5_11Expectation4call
FNDA:3,_RNvMs6_NtNtNtNtCsfsPcvtvSBg5_13rag_toolchain7clients6traits42___mock_MockAsyncChatClient_AsyncChatClient8___invokeNtB5_11Expectation7is_done
FNDA:4,_RNvMs6_NtNtNtNtCsfsPcvtvSBg5_13rag_toolchain7clients6traits42___mock_MockAsyncChatClient_AsyncChatClient8___invokeNtB5_11Expectation7matches
FNDA:3,_RNvXs7_NtNtNtNtCsfsPcvtvSBg5_13rag_toolchain7clients6traits42___mock_MockAsyncChatClient_AsyncChatClient8___invokeNtB5_11ExpectationNtNtCsaYZPK01V26L_4core7default7Default7default
FNDA:3,_RNvMs8_NtNtNtNtCsfsPcvtvSBg5_13rag_toolchain7clients6traits42___mock_MockAsyncChatClient_AsyncChatClient8___invokeNtB5_12Expectations6expect
FNDA:2,_RNvXs9_NtNtNtNtCsfsPcvtvSBg5_13rag_toolchain7clients6traits42___mock_MockAsyncChatClient_AsyncChatClient8___invokeNtB5_12ExpectationsNtNtCsaYZPK01V26L_4core7default7Default7default
FNDA:3,_RNvMsa_NtNtNtNtCsfsPcvtvSBg5_13rag_toolchain7clients6traits42___mock_MockAsyncChatClient_AsyncChatClient8___invokeNtB5_12Expectations4call
FNDA:1,_RNvMNtNtNtNtCsfsPcvtvSBg5_13rag_toolchain7clients6traits58___mock_MockAsyncStreamedChatClient_AsyncStreamedChatClient15___invoke_streamNtB2_5Rfunc8call_mut
FNDA:1,_RNvXs_NtNtNtNtCsfsPcvtvSBg5_13rag_toolchain7clients6traits58___mock_MockAsyncStreamedChatClient_AsyncStreamedChatClient15___invoke_streamNtB4_5RfuncNtNtCsaYZPK01V26L_4core7default7Default7default
FNDA:1,_RNvMs0_NtNtNtNtCsfsPcvtvSBg5_13rag_toolchain7clients6traits58___mock_MockAsyncStreamedChatClient_AsyncStreamedChatClient15___invoke_streamNtB5_7Matcher7matches
FNDA:1,_RNvXs1_NtNtNtNtCsfsPcvtvSBg5_13rag_toolchain7clients6traits58___mock_MockAsyncStreamedChatClient_AsyncStreamedChatClient15___invoke_streamNtB5_7MatcherNtNtCsaYZPK01V26L_4core7default7Default7default
FNDA:1,_RNvXs2_NtNtNtNtCsfsPcvtvSBg5_13rag_toolchain7clients6traits58___mock_MockAsyncStreamedChatClient_AsyncStreamedChatClient15___invoke_streamNtB5_7MatcherNtNtCsaYZPK01V26L_4core3fmt7Display3fmt
FNDA:1,_RNvXs3_NtNtNtNtCsfsPcvtvSBg5_13rag_toolchain7clients6traits58___mock_MockAsyncStreamedChatClient_AsyncStreamedChatClient15___invoke_streamNtB5_6CommonNtNtCsaYZPK01V26L_4core7default7Default7default
FNDA:0,_RNvMs4_NtNtNtNtCsfsPcvtvSBg5_13rag_toolchain7clients6traits58___mock_MockAsyncStreamedChatClient_AsyncStreamedChatClient15___invoke_streamNtB5_6Common4call
FNDA:1,_RNvMs4_NtNtNtNtCsfsPcvtvSBg5_13rag_toolchain7clients6traits58___mock_MockAsyncStreamedChatClient_AsyncStreamedChatClient15___invoke_streamNtB5_6Common7is_done
FNDA:1,_RNvMs4_NtNtNtNtCsfsPcvtvSBg5_13rag_toolchain7clients6traits58___mock_MockAsyncStreamedChatClient_AsyncStreamedChatClient15___invoke_streamNtB5_6Common7matches
FNDA:1,_RNvMs4_NtNtNtNtCsfsPcvtvSBg5_13rag_toolchain7clients6traits58___mock_MockAsyncStreamedChatClient_AsyncStreamedChatClient15___invoke_streamNtB5_6Common16satisfy_sequence
FNDA:1,_RNvMs4_NtNtNtNtCsfsPcvtvSBg5_13rag_toolchain7clients6traits58___mock_MockAsyncStreamedChatClient_AsyncStreamedChatClient15___invoke_streamNtB5_6Common15verify_sequence
FNDA:1,_RNvMs6_NtNtNtNtCsfsPcvtvSBg5_13rag_toolchain7clients6traits58___mock_MockAsyncStreamedChatClient_AsyncStreamedChatClient15___invoke_streamNtB5_11Expectation4call
FNDA:1,_RNvMs6_NtNtNtNtCsfsPcvtvSBg5_13rag_toolchain7clients6traits58___mock_MockAsyncStreamedChatClient_AsyncStreamedChatClient15___invoke_streamNtB5_11Expectation7is_done
FNDA:1,_RNvMs6_NtNtNtNtCsfsPcvtvSBg5_13rag_toolchain7clients6traits58___mock_MockAsyncStreamedChatClient_AsyncStreamedChatClient15___invoke_streamNtB5_11Expectation7matches
FNDA:1,_RNvXs7_NtNtNtNtCsfsPcvtvSBg5_13rag_toolchain7clients6traits58___mock_MockAsyncStreamedChatClient_AsyncStreamedChatClient15___invoke_streamNtB5_11ExpectationNtNtCsaYZPK01V26L_4core7default7Default7default
FNDA:1,_RNvMs8_NtNtNtNtCsfsPcvtvSBg5_13rag_toolchain7clients6traits58___mock_MockAsyncStreamedChatClient_AsyncStreamedChatClient15___invoke_streamNtB5_12Expectations6expect
FNDA:1,_RNvXs9_NtNtNtNtCsfsPcvtvSBg5_13rag_toolchain7clients6traits58___mock_MockAsyncStreamedChatClient_AsyncStreamedChatClient15___invoke_streamNtB5_12ExpectationsNtNtCsaYZPK01V26L_4core7default7Default7default
FNDA:1,_RNvMsa_NtNtNtNtCsfsPcvtvSBg5_13rag_toolchain7clients6traits58___mock_MockAsyncStreamedChatClient_AsyncStreamedChatClient15___invoke_streamNtB5_12Expectations4call
FNF:9
FNH:6
DA:54,0
DA:55,0
DA:56,0
DA:57,0
DA:58,0
DA:59,0
DA:60,0
DA:61,0
DA:62,0
DA:63,0
DA:64,0
DA:66,22
DA:67,67
DA:68,3
DA:69,3
DA:70,3
DA:71,3
DA:72,3
DA:73,3
DA:74,3
DA:75,34
DA:78,7
DA:79,21
DA:80,1
DA:81,1
DA:82,1
DA:83,1
DA:84,1
DA:85,1
DA:86,1
DA:87,1
DA:88,1
DA:89,11
DA:92,7
DA:93,18
DA:94,1
DA:95,1
DA:96,1
DA:97,1
DA:98,1
DA:99,11
DA:103,0
DA:104,0
DA:105,0
BRF:0
BRH:0
LF:48
LH:33
end_of_record
SF:/root/project/rust-rag-toolchain/rag-toolchain/src/clients/types.rs
FN:22,_RNvMNtNtCsfsPcvtvSBg5_13rag_toolchain7clients5typesNtB2_13PromptMessage7content
FNDA:5,_RNvMNtNtCsfsPcvtvSBg5_13rag_toolchain7clients5typesNtB2_13PromptMessage7content
FNF:1
FNH:1
DA:22,5
DA:23,5
DA:24,0
DA:25,5
DA:26,0
DA:28,5
BRF:0
BRH:0
LF:6
LH:4
end_of_record
SF:/root/project/rust-rag-toolchain/rag-toolchain/src/common/embedding_shared.rs
FN:53,_RNvXNtNtCsfsPcvtvSBg5_13rag_toolchain6common16embedding_sharedNtB2_20OpenAIEmbeddingModelNtB2_14EmbeddingModel8metadata
FN:84,_RNvMs_NtNtCsfsPcvtvSBg5_13rag_toolchain6common16embedding_sharedNtB4_15OpenAITokenizer3new
FN:93,_RNvXs0_NtNtCsfsPcvtvSBg5_13rag_toolchain6common16embedding_sharedNtB5_15OpenAITokenizerNtB5_16TokenizerWrapper8tokenize
FN:37,_RNvXNvXNvNtNtCsfsPcvtvSBg5_13rag_toolchain6common16embedding_shareds_1__NtB7_20OpenAIEmbeddingModelNtNtCseHmADR0RVY9_5serde2de11Deserialize11deserializeNtB2_14___FieldVisitorNtB1B_7Visitor9expecting
FN:37,_RINvXNvXNvNtNtCsfsPcvtvSBg5_13rag_toolchain6common16embedding_shareds_1__NtB8_20OpenAIEmbeddingModelNtNtCseHmADR0RVY9_5serde2de11Deserialize11deserializeNtB3_14___FieldVisitorNtB1C_7Visitor9visit_u64pEBc_
FN:37,_RINvXNvXNvNtNtCsfsPcvtvSBg5_13rag_toolchain6common16embedding_shareds_1__NtB8_20OpenAIEmbeddingModelNtNtCseHmADR0RVY9_5serde2de11Deserialize11deserializeNtB3_14___FieldVisitorNtB1C_7Visitor11visit_bytespEBc_
FN:37,_RNvXs0_NvXNvNtNtCsfsPcvtvSBg5_13rag_toolchain6common16embedding_shareds_1__NtBa_20OpenAIEmbeddingModelNtNtCseHmADR0RVY9_5serde2de11Deserialize11deserializeNtB5_9___VisitorNtB1E_7Visitor9expecting
FN:37,_RINvXNvXNvNtNtCsfsPcvtvSBg5_13rag_toolchain6common16embedding_shareds_1__NtB8_20OpenAIEmbeddingModelNtNtCseHmADR0RVY9_5serde2de11Deserialize11deserializeNtB3_14___FieldVisitorNtB1C_7Visitor9visit_strNtNtCse05LGF5xr5W_10serde_json5error5ErrorEBc_
FN:37,_RINvXs_NvXNvNtNtCsfsPcvtvSBg5_13rag_toolchain6common16embedding_shareds_1__NtBa_20OpenAIEmbeddingModelNtNtCseHmADR0RVY9_5serde2de11Deserialize11deserializeNtB5_7___FieldB1C_11deserializeQINtNtCse05LGF5xr5W_10serde_json2de12DeserializerNtNtB34_4read7StrReadEEBe_
FN:37,_RINvXs0_NvXNvNtNtCsfsPcvtvSBg5_13rag_toolchain6common16embedding_shareds_1__NtBb_20OpenAIEmbeddingModelNtNtCseHmADR0RVY9_5serde2de11Deserialize11deserializeNtB6_9___VisitorNtB1F_7Visitor10visit_enumINtNtCse05LGF5xr5W_10serde_json2de13VariantAccessNtNtB3f_4read7StrReadEEBf_
FN:37,_RINvXs0_NvXNvNtNtCsfsPcvtvSBg5_13rag_toolchain6common16embedding_shareds_1__NtBb_20OpenAIEmbeddingModelNtNtCseHmADR0RVY9_5serde2de11Deserialize11deserializeNtB6_9___VisitorNtB1F_7Visitor10visit_enumINtNtCse05LGF5xr5W_10serde_json2de17UnitVariantAccessNtNtB3f_4read7StrReadEEBf_
FNDA:4,_RNvXNtNtCsfsPcvtvSBg5_13rag_toolchain6common16embedding_sharedNtB2_20OpenAIEmbeddingModelNtB2_14EmbeddingModel8metadata
FNDA:4,_RNvMs_NtNtCsfsPcvtvSBg5_13rag_toolchain6common16embedding_sharedNtB4_15OpenAITokenizer3new
FNDA:2,_RNvXs0_NtNtCsfsPcvtvSBg5_13rag_toolchain6common16embedding_sharedNtB5_15OpenAITokenizerNtB5_16TokenizerWrapper8tokenize
FNDA:0,_RNvXNvXNvNtNtCsfsPcvtvSBg5_13rag_toolchain6common16embedding_shareds_1__NtB7_20OpenAIEmbeddingModelNtNtCseHmADR0RVY9_5serde2de11Deserialize11deserializeNtB2_14___FieldVisitorNtB1B_7Visitor9expecting
FNDA:0,_RINvXNvXNvNtNtCsfsPcvtvSBg5_13rag_toolchain6common16embedding_shareds_1__NtB8_20OpenAIEmbeddingModelNtNtCseHmADR0RVY9_5serde2de11Deserialize11deserializeNtB3_14___FieldVisitorNtB1C_7Visitor9visit_u64pEBc_
FNDA:0,_RINvXNvXNvNtNtCsfsPcvtvSBg5_13rag_toolchain6common16embedding_shareds_1__NtB8_20OpenAIEmbeddingModelNtNtCseHmADR0RVY9_5serde2de11Deserialize11deserializeNtB3_14___FieldVisitorNtB1C_7Visitor11visit_bytespEBc_
FNDA:0,_RNvXs0_NvXNvNtNtCsfsPcvtvSBg5_13rag_toolchain6common16embedding_shareds_1__NtBa_20OpenAIEmbeddingModelNtNtCseHmADR0RVY9_5serde2de11Deserialize11deserializeNtB5_9___VisitorNtB1E_7Visitor9expecting
FNDA:3,_RINvXNvXNvNtNtCsfsPcvtvSBg5_13rag_toolchain6common16embedding_shareds_1__NtB8_20OpenAIEmbeddingModelNtNtCseHmADR0RVY9_5serde2de11Deserialize11deserializeNtB3_14___FieldVisitorNtB1C_7Visitor9visit_strNtNtCse05LGF5xr5W_10serde_json5error5ErrorEBc_
FNDA:3,_RINvXs_NvXNvNtNtCsfsPcvtvSBg5_13rag_toolchain6common16embedding_shareds_1__NtBa_20OpenAIEmbeddingModelNtNtCseHmADR0RVY9_5serde2de11Deserialize11deserializeNtB5_7___FieldB1C_11deserializeQINtNtCse05LGF5xr5W_10serde_json2de12DeserializerNtNtB34_4read7StrReadEEBe_
FNDA:0,_RINvXs0_NvXNvNtNtCsfsPcvtvSBg5_13rag_toolchain6common16embedding_shareds_1__NtBb_20OpenAIEmbeddingModelNtNtCseHmADR0RVY9_5serde2de11Deserialize11deserializeNtB6_9___VisitorNtB1F_7Visitor10visit_enumINtNtCse05LGF5xr5W_10serde_json2de13VariantAccessNtNtB3f_4read7StrReadEEBf_
FNDA:3,_RINvXs0_NvXNvNtNtCsfsPcvtvSBg5_13rag_toolchain6common16embedding_shareds_1__NtBb_20OpenAIEmbeddingModelNtNtCseHmADR0RVY9_5serde2de11Deserialize11deserializeNtB6_9___VisitorNtB1F_7Visitor10visit_enumINtNtCse05LGF5xr5W_10serde_json2de17UnitVariantAccessNtNtB3f_4read7StrReadEEBf_
FNF:4
FNH:4
DA:37,6
DA:53,4
DA:54,4
DA:55,4
DA:56,4
DA:57,4
DA:58,4
DA:59,4
DA:60,0
DA:61,0
DA:62,0
DA:63,0
DA:64,0
DA:65,0
DA:66,0
DA:67,0
DA:68,0
DA:69,0
DA:71,4
DA:84,4
DA:85,4
DA:86,4
DA:87,4
DA:88,4
DA:93,2
DA:94,2
DA:95,2
DA:97,0
DA:99,2
BRF:0
BRH:0
LF:29
LH:18
end_of_record
SF:/root/project/rust-rag-toolchain/rag-toolchain/src/common/types.rs
FN:39,_RNvMNtNtCsfsPcvtvSBg5_13rag_toolchain6common5typesNtB2_9Embedding5chunk
FN:48,_RNvMNtNtCsfsPcvtvSBg5_13rag_toolchain6common5typesNtB2_9Embedding6vector
FN:106,_RNvMs_NtNtCsfsPcvtvSBg5_13rag_toolchain6common5typesNtB4_5Chunk7content
FN:27,_RINvMNtNtCsfsPcvtvSBg5_13rag_toolchain6common5typesNtB3_9Embedding3newINtNtCsdZExvAaxgia_5alloc3vec3VecfEEB7_
FN:76,_RINvMs_NtNtCsfsPcvtvSBg5_13rag_toolchain6common5typesNtB5_5Chunk3newNtNtCsdZExvAaxgia_5alloc6string6StringEB9_
FN:76,_RINvMs_NtNtCsfsPcvtvSBg5_13rag_toolchain6common5typesNtB5_5Chunk3newReEB9_
FN:10,_RNvXNvXNvNtNtCsfsPcvtvSBg5_13rag_toolchain6common5typess_1__NtB7_9EmbeddingNtNtCseHmADR0RVY9_5serde2de11Deserialize11deserializeNtB2_14___FieldVisitorNtB1d_7Visitor9expecting
FN:10,_RINvXNvXNvNtNtCsfsPcvtvSBg5_13rag_toolchain6common5typess_1__NtB8_9EmbeddingNtNtCseHmADR0RVY9_5serde2de11Deserialize11deserializeNtB3_14___FieldVisitorNtB1e_7Visitor9visit_u64pEBc_
FN:10,_RINvXNvXNvNtNtCsfsPcvtvSBg5_13rag_toolchain6common5typess_1__NtB8_9EmbeddingNtNtCseHmADR0RVY9_5serde2de11Deserialize11deserializeNtB3_14___FieldVisitorNtB1e_7Visitor9visit_strpEBc_
FN:10,_RINvXNvXNvNtNtCsfsPcvtvSBg5_13rag_toolchain6common5typess_1__NtB8_9EmbeddingNtNtCseHmADR0RVY9_5serde2de11Deserialize11deserializeNtB3_14___FieldVisitorNtB1e_7Visitor11visit_bytespEBc_
FN:10,_RINvXs_NvXNvNtNtCsfsPcvtvSBg5_13rag_toolchain6common5typess_1__NtBa_9EmbeddingNtNtCseHmADR0RVY9_5serde2de11Deserialize11deserializeNtB5_7___FieldB1e_11deserializepEBe_
FN:10,_RNvXs0_NvXNvNtNtCsfsPcvtvSBg5_13rag_toolchain6common5typess_1__NtBa_9EmbeddingNtNtCseHmADR0RVY9_5serde2de11Deserialize11deserializeNtB5_9___VisitorNtB1g_7Visitor9expecting
FN:10,_RINvXs0_NvXNvNtNtCsfsPcvtvSBg5_13rag_toolchain6common5typess_1__NtBb_9EmbeddingNtNtCseHmADR0RVY9_5serde2de11Deserialize11deserializeNtB6_9___VisitorNtB1h_7Visitor9visit_seqpEBf_
FN:10,_RINvXs0_NvXNvNtNtCsfsPcvtvSBg5_13rag_toolchain6common5typess_1__NtBb_9EmbeddingNtNtCseHmADR0RVY9_5serde2de11Deserialize11deserializeNtB6_9___VisitorNtB1h_7Visitor9visit_mappEBf_
FN:55,_RNvXNvXNvNtNtCsfsPcvtvSBg5_13rag_toolchain6common5typess1_1__NtB7_5ChunkNtNtCseHmADR0RVY9_5serde2de11Deserialize11deserializeNtB2_14___FieldVisitorNtB1a_7Visitor9expecting
FN:55,_RINvXNvXNvNtNtCsfsPcvtvSBg5_13rag_toolchain6common5typess1_1__NtB8_5ChunkNtNtCseHmADR0RVY9_5serde2de11Deserialize11deserializeNtB3_14___FieldVisitorNtB1b_7Visitor9visit_u64pEBc_
FN:55,_RINvXNvXNvNtNtCsfsPcvtvSBg5_13rag_toolchain6common5typess1_1__NtB8_5ChunkNtNtCseHmADR0RVY9_5serde2de11Deserialize11deserializeNtB3_14___FieldVisitorNtB1b_7Visitor9visit_strpEBc_
FN:55,_RINvXNvXNvNtNtCsfsPcvtvSBg5_13rag_toolchain6common5typess1_1__NtB8_5ChunkNtNtCseHmADR0RVY9_5serde2de11Deserialize11deserializeNtB3_14___FieldVisitorNtB1b_7Visitor11visit_bytespEBc_
FN:55,_RINvXs_NvXNvNtNtCsfsPcvtvSBg5_13rag_toolchain6common5typess1_1__NtBa_5ChunkNtNtCseHmADR0RVY9_5serde2de11Deserialize11deserializeNtB5_7___FieldB1b_11deserializepEBe_
FN:55,_RNvXs0_NvXNvNtNtCsfsPcvtvSBg5_13rag_toolchain6common5typess1_1__NtBa_5ChunkNtNtCseHmADR0RVY9_5serde2de11Deserialize11deserializeNtB5_9___VisitorNtB1d_7Visitor9expecting
FN:55,_RINvXs0_NvXNvNtNtCsfsPcvtvSBg5_13rag_toolchain6common5typess1_1__NtBb_5ChunkNtNtCseHmADR0RVY9_5serde2de11Deserialize11deserializeNtB6_9___VisitorNtB1e_7Visitor9visit_seqpEBf_
FN:55,_RINvXs0_NvXNvNtNtCsfsPcvtvSBg5_13rag_toolchain6common5typess1_1__NtBb_5ChunkNtNtCseHmADR0RVY9_5serde2de11Deserialize11deserializeNtB6_9___VisitorNtB1e_7Visitor9visit_mappEBf_
FN:94,_RINvMs_NtNtCsfsPcvtvSBg5_13rag_toolchain6common5typesNtB5_5Chunk17new_with_metadatapEB9_
FN:114,_RNvMs_NtNtCsfsPcvtvSBg5_13rag_toolchain6common5typesNtB4_5Chunk8metadata
FNDA:3,_RNvMNtNtCsfsPcvtvSBg5_13rag_toolchain6common5typesNtB2_9Embedding5chunk
FNDA:3,_RNvMNtNtCsfsPcvtvSBg5_13rag_toolchain6common5typesNtB2_9Embedding6vector
FNDA:17,_RNvMs_NtNtCsfsPcvtvSBg5_13rag_toolchain6common5typesNtB4_5Chunk7content
FNDA:3,_RINvMNtNtCsfsPcvtvSBg5_13rag_toolchain6common5typesNtB3_9Embedding3newINtNtCsdZExvAaxgia_5alloc3vec3VecfEEB7_
FNDA:2,_RINvMs_NtNtCsfsPcvtvSBg5_13rag_toolchain6common5typesNtB5_5Chunk3newNtNtCsdZExvAaxgia_5alloc6string6StringEB9_
FNDA:18,_RINvMs_NtNtCsfsPcvtvSBg5_13rag_toolchain6common5typesNtB5_5Chunk3newReEB9_
FNDA:0,_RNvXNvXNvNtNtCsfsPcvtvSBg5_13rag_toolchain6common5typess_1__NtB7_9EmbeddingNtNtCseHmADR0RVY9_5serde2de11Deserialize11deserializeNtB2_14___FieldVisitorNtB1d_7Visitor9expecting
FNDA:0,_RINvXNvXNvNtNtCsfsPcvtvSBg5_13rag_toolchain6common5typess_1__NtB8_9EmbeddingNtNtCseHmADR0RVY9_5serde2de11Deserialize11deserializeNtB3_14___FieldVisitorNtB1e_7Visitor9visit_u64pEBc_
FNDA:0,_RINvXNvXNvNtNtCsfsPcvtvSBg5_13rag_toolchain6common5typess_1__NtB8_9EmbeddingNtNtCseHmADR0RVY9_5serde2de11Deserialize11deserializeNtB3_14___FieldVisitorNtB1e_7Visitor9visit_strpEBc_
FNDA:0,_RINvXNvXNvNtNtCsfsPcvtvSBg5_13rag_toolchain6common5typess_1__NtB8_9EmbeddingNtNtCseHmADR0RVY9_5serde2de11Deserialize11deserializeNtB3_14___FieldVisitorNtB1e_7Visitor11visit_bytespEBc_
FNDA:0,_RINvXs_NvXNvNtNtCsfsPcvtvSBg5_13rag_toolchain6common5typess_1__NtBa_9EmbeddingNtNtCseHmADR0RVY9_5serde2de11Deserialize11deserializeNtB5_7___FieldB1e_11deserializepEBe_
FNDA:0,_RNvXs0_NvXNvNtNtCsfsPcvtvSBg5_13rag_toolchain6common5typess_1__NtBa_9EmbeddingNtNtCseHmADR0RVY9_5serde2de11Deserialize11deserializeNtB5_9___VisitorNtB1g_7Visitor9expecting
FNDA:0,_RINvXs0_NvXNvNtNtCsfsPcvtvSBg5_13rag_toolchain6common5typess_1__NtBb_9EmbeddingNtNtCseHmADR0RVY9_5serde2de11Deserialize11deserializeNtB6_9___VisitorNtB1h_7Visitor9visit_seqpEBf_
FNDA:0,_RINvXs0_NvXNvNtNtCsfsPcvtvSBg5_13rag_toolchain6common5typess_1__NtBb_9EmbeddingNtNtCseHmADR0RVY9_5serde2de11Deserialize11deserializeNtB6_9___VisitorNtB1h_7Visitor9visit_mappEBf_
FNDA:0,_RNvXNvXNvNtNtCsfsPcvtvSBg5_13rag_toolchain6common5typess1_1__NtB7_5ChunkNtNtCseHmADR0RVY9_5serde2de11Deserialize11deserializeNtB2_14___FieldVisitorNtB1a_7Visitor9expecting
FNDA:0,_RINvXNvXNvNtNtCsfsPcvtvSBg5_13rag_toolchain6common5typess1_1__NtB8_5ChunkNtNtCseHmADR0RVY9_5serde2de11Deserialize11deserializeNtB3_14___FieldVisitorNtB1b_7Visitor9visit_u64pEBc_
FNDA:0,_RINvXNvXNvNtNtCsfsPcvtvSBg5_13rag_toolchain6common5typess1_1__NtB8_5ChunkNtNtCseHmADR0RVY9_5serde2de11Deserialize11deserializeNtB3_14___FieldVisitorNtB1b_7Visitor9visit_strpEBc_
FNDA:0,_RINvXNvXNvNtNtCsfsPcvtvSBg5_13rag_toolchain6common5typess1_1__NtB8_5ChunkNtNtCseHmADR0RVY9_5serde2de11Deserialize11deserializeNtB3_14___FieldVisitorNtB1b_7Visitor11visit_bytespEBc_
FNDA:0,_RINvXs_NvXNvNtNtCsfsPcvtvSBg5_13rag_toolchain6common5typess1_1__NtBa_5ChunkNtNtCseHmADR0RVY9_5serde2de11Deserialize11deserializeNtB5_7___FieldB1b_11deserializepEBe_
FNDA:0,_RNvXs0_NvXNvNtNtCsfsPcvtvSBg5_13rag_toolchain6common5typess1_1__NtBa_5ChunkNtNtCseHmADR0RVY9_5serde2de11Deserialize11deserializeNtB5_9___VisitorNtB1d_7Visitor9expecting
FNDA:0,_RINvXs0_NvXNvNtNtCsfsPcvtvSBg5_13rag_toolchain6common5typess1_1__NtBb_5ChunkNtNtCseHmADR0RVY9_5serde2de11Deserialize11deserializeNtB6_9___VisitorNtB1e_7Visitor9visit_seqpEBf_
FNDA:0,_RINvXs0_NvXNvNtNtCsfsPcvtvSBg5_13rag_toolchain6common5typess1_1__NtBb_5ChunkNtNtCseHmADR0RVY9_5serde2de11Deserialize11deserializeNtB6_9___VisitorNtB1e_7Visitor9visit_mappEBf_
FNDA:0,_RINvMs_NtNtCsfsPcvtvSBg5_13rag_toolchain6common5typesNtB5_5Chunk17new_with_metadatapEB9_
FNDA:0,_RNvMs_NtNtCsfsPcvtvSBg5_13rag_toolchain6common5typesNtB4_5Chunk8metadata
FNF:9
FNH:5
DA:10,0
DA:27,3
DA:28,3
DA:29,3
DA:30,3
DA:31,3
DA:32,3
DA:39,3
DA:40,3
DA:41,3
DA:48,3
DA:49,3
DA:50,3
DA:55,0
DA:76,20
DA:77,20
DA:78,20
DA:79,20
DA:80,20
DA:81,20
DA:94,0
DA:95,0
DA:96,0
DA:97,0
DA:98,0
DA:99,0
DA:106,17
DA:107,17
DA:108,17
DA:114,0
DA:115,0
DA:116,0
BRF:0
BRH:0
LF:32
LH:21
end_of_record
SF:/root/project/rust-rag-toolchain/rag-toolchain/src/loaders/single_file_loader.rs
FN:13,_RINvMNtNtCsfsPcvtvSBg5_13rag_toolchain7loaders18single_file_loaderNtB3_16SingleFileSource3newpEB7_
FN:20,_RNvXs_NtNtCsfsPcvtvSBg5_13rag_toolchain7loaders18single_file_loaderNtB4_16SingleFileSourceNtNtB6_6traits10LoadSource4load
FNDA:0,_RINvMNtNtCsfsPcvtvSBg5_13rag_toolchain7loaders18single_file_loaderNtB3_16SingleFileSource3newpEB7_
FNDA:0,_RNvXs_NtNtCsfsPcvtvSBg5_13rag_toolchain7loaders18single_file_loaderNtB4_16SingleFileSourceNtNtB6_6traits10LoadSource4load
FNF:2
FNH:0
DA:13,0
DA:14,0
DA:15,0
DA:20,0
DA:21,0
DA:22,0
DA:23,0
BRF:0
BRH:0
LF:7
LH:0
end_of_record
SF:/root/project/rust-rag-toolchain/rag-toolchain/src/retrievers/postgres_vector_retriever.rs
FN:59,_RNvMNtNtCsfsPcvtvSBg5_13rag_toolchain10retrievers25postgres_vector_retrieverINtB2_23PostgresVectorRetrieverpE3newB6_
FN:83,_RNvMNtNtCsfsPcvtvSBg5_13rag_toolchain10retrievers25postgres_vector_retrieverINtB2_23PostgresVectorRetrieverpE14select_row_sqlB6_
FN:115,_RNvXININtNtCsfsPcvtvSBg5_13rag_toolchain10retrievers25postgres_vector_retrievers_0pEINtB5_23PostgresVectorRetrieverpENtNtB7_6traits14AsyncRetriever8retrieveB9_
FN:115,_RNCNvXININtNtCsfsPcvtvSBg5_13rag_toolchain10retrievers25postgres_vector_retrievers_0pEINtB7_23PostgresVectorRetrieverpENtNtB9_6traits14AsyncRetriever8retrieve0Bb_
FN:136,_RNCNCNvXININtNtCsfsPcvtvSBg5_13rag_toolchain10retrievers25postgres_vector_retrievers_0pEINtB9_23PostgresVectorRetrieverpENtNtBb_6traits14AsyncRetriever8retrieve00Bd_
FN:154,_RNCNvXININtNtCsfsPcvtvSBg5_13rag_toolchain10retrievers25postgres_vector_retrieversd_0pENtB7_11PostgresRowINtNtCsbg5Yv6aKagK_9sqlx_core8from_row7FromRowpE8from_row0Bb_
FN:164,_RNvMs0_NtNtCsfsPcvtvSBg5_13rag_toolchain10retrievers25postgres_vector_retrieverNtB5_16DistanceFunction13to_sql_string
FN:174,_RNvXs1_NtNtCsfsPcvtvSBg5_13rag_toolchain10retrievers25postgres_vector_retrieverNtB5_16DistanceFunctionNtNtCsaYZPK01V26L_4core3fmt7Display3fmt
FN:197,_RNvXININtNtCsfsPcvtvSBg5_13rag_toolchain10retrievers25postgres_vector_retrievers3_0pEINtB5_22PostgresRetrieverErrorpENtNtCsaYZPK01V26L_4core3fmt7Display3fmtB9_
FNDA:0,_RNvMNtNtCsfsPcvtvSBg5_13rag_toolchain10retrievers25postgres_vector_retrieverINtB2_23PostgresVectorRetrieverpE3newB6_
FNDA:0,_RNvMNtNtCsfsPcvtvSBg5_13rag_toolchain10retrievers25postgres_vector_retrieverINtB2_23PostgresVectorRetrieverpE14select_row_sqlB6_
FNDA:0,_RNvXININtNtCsfsPcvtvSBg5_13rag_toolchain10retrievers25postgres_vector_retrievers_0pEINtB5_23PostgresVectorRetrieverpENtNtB7_6traits14AsyncRetriever8retrieveB9_
FNDA:0,_RNCNvXININtNtCsfsPcvtvSBg5_13rag_toolchain10retrievers25postgres_vector_retrievers_0pEINtB7_23PostgresVectorRetrieverpENtNtB9_6traits14AsyncRetriever8retrieve0Bb_
FNDA:0,_RNCNCNvXININtNtCsfsPcvtvSBg5_13rag_toolchain10retrievers25postgres_vector_retrievers_0pEINtB9_23PostgresVectorRetrieverpENtNtBb_6traits14AsyncRetriever8retrieve00Bd_
FNDA:0,_RNCNvXININtNtCsfsPcvtvSBg5_13rag_toolchain10retrievers25postgres_vector_retrieversd_0pENtB7_11PostgresRowINtNtCsbg5Yv6aKagK_9sqlx_core8from_row7FromRowpE8from_row0Bb_
FNDA:0,_RNvMs0_NtNtCsfsPcvtvSBg5_13rag_toolchain10retrievers25postgres_vector_retrieverNtB5_16DistanceFunction13to_sql_string
FNDA:0,_RNvXs1_NtNtCsfsPcvtvSBg5_13rag_toolchain10retrievers25postgres_vector_retrieverNtB5_16DistanceFunctionNtNtCsaYZPK01V26L_4core3fmt7Display3fmt
FNDA:0,_RNvXININtNtCsfsPcvtvSBg5_13rag_toolchain10retrievers25postgres_vector_retrievers3_0pEINtB5_22PostgresRetrieverErrorpENtNtCsaYZPK01V26L_4core3fmt7Display3fmtB9_
FNF:9
FNH:0
DA:59,0
DA:60,0
DA:61,0
DA:62,0
DA:63,0
DA:64,0
DA:65,0
DA:66,0
DA:67,0
DA:68,0
DA:69,0
DA:70,0
DA:71,0
DA:83,0
DA:84,0
DA:85,0
DA:86,0
DA:87,0
DA:88,0
DA:89,0
DA:115,0
DA:116,0
DA:117,0
DA:118,0
DA:119,0
DA:120,0
DA:121,0
DA:122,0
DA:124,0
DA:125,0
DA:127,0
DA:128,0
DA:129,0
DA:130,0
DA:131,0
DA:132,0
DA:134,0
DA:135,0
DA:136,0
DA:137,0
DA:138,0
DA:154,0
DA:164,0
DA:165,0
DA:166,0
DA:167,0
DA:168,0
DA:170,0
DA:174,0
DA:175,0
DA:176,0
DA:177,0
DA:178,0
DA:180,0
DA:197,0
DA:198,0
DA:199,0
DA:200,0
DA:202,0
DA:203,0
DA:206,0
BRF:0
BRH:0
LF:63
LH:0
end_of_record
SF:/root/project/rust-rag-toolchain/rag-toolchain/src/retrievers/traits.rs
FN:40,_RNvMNtNtNtNtCsfsPcvtvSBg5_13rag_toolchain10retrievers6traits40___mock_MockAsyncRetriever_AsyncRetriever10___retrieveNtB2_5Rfunc8call_mut
FN:40,_RNvXs_NtNtNtNtCsfsPcvtvSBg5_13rag_toolchain10retrievers6traits40___mock_MockAsyncRetriever_AsyncRetriever10___retrieveNtB4_5RfuncNtNtCsaYZPK01V26L_4core7default7Default7default
FN:40,_RNvMs0_NtNtNtNtCsfsPcvtvSBg5_13rag_toolchain10retrievers6traits40___mock_MockAsyncRetriever_AsyncRetriever10___retrieveNtB5_7Matcher7matches
FN:40,_RNvXs1_NtNtNtNtCsfsPcvtvSBg5_13rag_toolchain10retrievers6traits40___mock_MockAsyncRetriever_AsyncRetriever10___retrieveNtB5_7MatcherNtNtCsaYZPK01V26L_4core7default7Default7default
FN:40,_RNvXs2_NtNtNtNtCsfsPcvtvSBg5_13rag_toolchain10retrievers6traits40___mock_MockAsyncRetriever_AsyncRetriever10___retrieveNtB5_7MatcherNtNtCsaYZPK01V26L_4core3fmt7Display3fmt
FN:40,_RNvXs3_NtNtNtNtCsfsPcvtvSBg5_13rag_toolchain10retrievers6traits40___mock_MockAsyncRetriever_AsyncRetriever10___retrieveNtB5_6CommonNtNtCsaYZPK01V26L_4core7default7Default7default
FN:46,_RNvMs4_NtNtNtNtCsfsPcvtvSBg5_13rag_toolchain10retrievers6traits40___mock_MockAsyncRetriever_AsyncRetriever10___retrieveNtB5_6Common4call
FN:40,_RNvMs4_NtNtNtNtCsfsPcvtvSBg5_13rag_toolchain10retrievers6traits40___mock_MockAsyncRetriever_AsyncRetriever10___retrieveNtB5_6Common7is_done
FN:40,_RNvMs4_NtNtNtNtCsfsPcvtvSBg5_13rag_toolchain10retrievers6traits40___mock_MockAsyncRetriever_AsyncRetriever10___retrieveNtB5_6Common7matches
FN:40,_RNvMs4_NtNtNtNtCsfsPcvtvSBg5_13rag_toolchain10retrievers6traits40___mock_MockAsyncRetriever_AsyncRetriever10___retrieveNtB5_6Common16satisfy_sequence
FN:40,_RNvMs4_NtNtNtNtCsfsPcvtvSBg5_13rag_toolchain10retrievers6traits40___mock_MockAsyncRetriever_AsyncRetriever10___retrieveNtB5_6Common15verify_sequence
FN:46,_RNvMs6_NtNtNtNtCsfsPcvtvSBg5_13rag_toolchain10retrievers6traits40___mock_MockAsyncRetriever_AsyncRetriever10___retrieveNtB5_11Expectation4call
FN:40,_RNvMs6_NtNtNtNtCsfsPcvtvSBg5_13rag_toolchain10retrievers6traits40___mock_MockAsyncRetriever_AsyncRetriever10___retrieveNtB5_11Expectation7is_done
FN:40,_RNvMs6_NtNtNtNtCsfsPcvtvSBg5_13rag_toolchain10retrievers6traits40___mock_MockAsyncRetriever_AsyncRetriever10___retrieveNtB5_11Expectation7matches
FN:40,_RNvXs7_NtNtNtNtCsfsPcvtvSBg5_13rag_toolchain10retrievers6traits40___mock_MockAsyncRetriever_AsyncRetriever10___retrieveNtB5_11ExpectationNtNtCsaYZPK01V26L_4core7default7Default7default
FN:40,_RNvMs8_NtNtNtNtCsfsPcvtvSBg5_13rag_toolchain10retrievers6traits40___mock_MockAsyncRetriever_AsyncRetriever10___retrieveNtB5_12Expectations6expect
FN:40,_RNvXs9_NtNtNtNtCsfsPcvtvSBg5_13rag_toolchain10retrievers6traits40___mock_MockAsyncRetriever_AsyncRetriever10___retrieveNtB5_12ExpectationsNtNtCsaYZPK01V26L_4core7default7Default7default
FN:46,_RNvMsa_NtNtNtNtCsfsPcvtvSBg5_13rag_toolchain10retrievers6traits40___mock_MockAsyncRetriever_AsyncRetriever10___retrieveNtB5_12Expectations4call
FN:40,_RNCNvXs2_NtNtCsfsPcvtvSBg5_13rag_toolchain10retrievers6traitsNtB7_18MockAsyncRetrieverNtB7_14AsyncRetriever8retrieve0Bb_
FN:40,_RNvMs4_NtNtNtNtCsfsPcvtvSBg5_13rag_toolchain10retrievers6traits40___mock_MockAsyncRetriever_AsyncRetriever10___retrieveNtB5_6Common11in_sequence
FN:40,_RNvMs4_NtNtNtNtCsfsPcvtvSBg5_13rag_toolchain10retrievers6traits40___mock_MockAsyncRetriever_AsyncRetriever10___retrieveNtB5_6Common5never
FN:40,_RINvMs4_NtNtNtNtCsfsPcvtvSBg5_13rag_toolchain10retrievers6traits40___mock_MockAsyncRetriever_AsyncRetriever10___retrieveNtB6_6Common5timespEBe_
FN:40,_RINvMs4_NtNtNtNtCsfsPcvtvSBg5_13rag_toolchain10retrievers6traits40___mock_MockAsyncRetriever_AsyncRetriever10___retrieveNtB6_6Common5withfpEBe_
FN:40,_RINvMs4_NtNtNtNtCsfsPcvtvSBg5_13rag_toolchain10retrievers6traits40___mock_MockAsyncRetriever_AsyncRetriever10___retrieveNtB6_6Common8withf_stpEBe_
FN:46,_RINvMs6_NtNtNtNtCsfsPcvtvSBg5_13rag_toolchain10retrievers6traits40___mock_MockAsyncRetriever_AsyncRetriever10___retrieveNtB6_11Expectation12return_constpEBe_
FN:40,_RNCINvMs6_NtNtNtNtCsfsPcvtvSBg5_13rag_toolchain10retrievers6traits40___mock_MockAsyncRetriever_AsyncRetriever10___retrieveNtB8_11Expectation12return_constpE0Bg_
FN:46,_RINvMs6_NtNtNtNtCsfsPcvtvSBg5_13rag_toolchain10retrievers6traits40___mock_MockAsyncRetriever_AsyncRetriever10___retrieveNtB6_11Expectation15return_const_stpEBe_
FN:40,_RNCINvMs6_NtNtNtNtCsfsPcvtvSBg5_13rag_toolchain10retrievers6traits40___mock_MockAsyncRetriever_AsyncRetriever10___retrieveNtB8_11Expectation15return_const_stpE0Bg_
FN:40,_RINvMs6_NtNtNtNtCsfsPcvtvSBg5_13rag_toolchain10retrievers6traits40___mock_MockAsyncRetriever_AsyncRetriever10___retrieveNtB6_11Expectation11return_oncepEBe_
FN:40,_RINvMs6_NtNtNtNtCsfsPcvtvSBg5_13rag_toolchain10retrievers6traits40___mock_MockAsyncRetriever_AsyncRetriever10___retrieveNtB6_11Expectation14return_once_stpEBe_
FN:40,_RINvMs6_NtNtNtNtCsfsPcvtvSBg5_13rag_toolchain10retrievers6traits40___mock_MockAsyncRetriever_AsyncRetriever10___retrieveNtB6_11Expectation12returning_stpEBe_
FN:40,_RNvMs6_NtNtNtNtCsfsPcvtvSBg5_13rag_toolchain10retrievers6traits40___mock_MockAsyncRetriever_AsyncRetriever10___retrieveNtB5_11Expectation11in_sequence
FN:40,_RNvMs6_NtNtNtNtCsfsPcvtvSBg5_13rag_toolchain10retrievers6traits40___mock_MockAsyncRetriever_AsyncRetriever10___retrieveNtB5_11Expectation5never
FN:40,_RNvMs6_NtNtNtNtCsfsPcvtvSBg5_13rag_toolchain10retrievers6traits40___mock_MockAsyncRetriever_AsyncRetriever10___retrieveNtB5_11Expectation3new
FN:40,_RNvMs6_NtNtNtNtCsfsPcvtvSBg5_13rag_toolchain10retrievers6traits40___mock_MockAsyncRetriever_AsyncRetriever10___retrieveNtB5_11Expectation4once
FN:40,_RINvMs6_NtNtNtNtCsfsPcvtvSBg5_13rag_toolchain10retrievers6traits40___mock_MockAsyncRetriever_AsyncRetriever10___retrieveNtB6_11Expectation5timespEBe_
FN:40,_RINvMs6_NtNtNtNtCsfsPcvtvSBg5_13rag_toolchain10retrievers6traits40___mock_MockAsyncRetriever_AsyncRetriever10___retrieveNtB6_11Expectation5withfpEBe_
FN:40,_RINvMs6_NtNtNtNtCsfsPcvtvSBg5_13rag_toolchain10retrievers6traits40___mock_MockAsyncRetriever_AsyncRetriever10___retrieveNtB6_11Expectation8withf_stpEBe_
FN:40,_RNvMs8_NtNtNtNtCsfsPcvtvSBg5_13rag_toolchain10retrievers6traits40___mock_MockAsyncRetriever_AsyncRetriever10___retrieveNtB5_12Expectations10checkpoint
FN:40,_RNvMs8_NtNtNtNtCsfsPcvtvSBg5_13rag_toolchain10retrievers6traits40___mock_MockAsyncRetriever_AsyncRetriever10___retrieveNtB5_12Expectations3new
FN:40,_RNvMs0_NtNtCsfsPcvtvSBg5_13rag_toolchain10retrievers6traitsNtB5_33MockAsyncRetriever_AsyncRetriever10checkpoint
FN:40,_RNvMs1_NtNtCsfsPcvtvSBg5_13rag_toolchain10retrievers6traitsNtB5_18MockAsyncRetriever10checkpoint
FN:40,_RNvXNtNtCsfsPcvtvSBg5_13rag_toolchain10retrievers6traitsNtB2_18MockAsyncRetrieverNtNtCsaYZPK01V26L_4core7default7Default7default
FN:40,_RNvXs_NtNtCsfsPcvtvSBg5_13rag_toolchain10retrievers6traitsNtB4_33MockAsyncRetriever_AsyncRetrieverNtNtCsaYZPK01V26L_4core7default7Default7default
FN:40,_RNvMs1_NtNtCsfsPcvtvSBg5_13rag_toolchain10retrievers6traitsNtB5_18MockAsyncRetriever3new
FN:40,_RNvXs2_NtNtCsfsPcvtvSBg5_13rag_toolchain10retrievers6traitsNtB5_18MockAsyncRetrieverNtB5_14AsyncRetriever8retrieve
FN:40,_RNvMs3_NtNtCsfsPcvtvSBg5_13rag_toolchain10retrievers6traitsNtB5_18MockAsyncRetriever15expect_retrieve
FN:40,_RNvXs5_NtNtNtNtCsfsPcvtvSBg5_13rag_toolchain10retrievers6traits40___mock_MockAsyncRetriever_AsyncRetriever10___retrieveNtB5_6CommonNtNtNtCsaYZPK01V26L_4core3ops4drop4Drop4drop
FN:40,_RNCNvMs0_NtNtNtNtCsfsPcvtvSBg5_13rag_toolchain10retrievers6traits40___mock_MockAsyncRetriever_AsyncRetriever10___retrieveNtB7_7Matcher7matches0Bf_
FN:40,_RNCNvMs4_NtNtNtNtCsfsPcvtvSBg5_13rag_toolchain10retrievers6traits40___mock_MockAsyncRetriever_AsyncRetriever10___retrieveNtB7_6Common4call0Bf_
FN:40,_RINvMs4_NtNtNtNtCsfsPcvtvSBg5_13rag_toolchain10retrievers6traits40___mock_MockAsyncRetriever_AsyncRetriever10___retrieveNtB6_6Common4withINtNtCs7xKSZ3o61tT_10predicates3ord11EqPredicateReEIB2c_INtNtNtCsaYZPK01V26L_4core3num7nonzero7NonZeromEEEBe_
FN:40,_RNCNvMs6_NtNtNtNtCsfsPcvtvSBg5_13rag_toolchain10retrievers6traits40___mock_MockAsyncRetriever_AsyncRetriever10___retrieveNtB7_11Expectation4call0Bf_
FN:40,_RINvMs6_NtNtNtNtCsfsPcvtvSBg5_13rag_toolchain10retrievers6traits40___mock_MockAsyncRetriever_AsyncRetriever10___retrieveNtB6_11Expectation9returningNCNCNvNtNtNtBe_6chains15basic_rag_chain21basic_rag_chain_testss_19test_chain_succeeds00EBe_
FN:40,_RINvMs6_NtNtNtNtCsfsPcvtvSBg5_13rag_toolchain10retrievers6traits40___mock_MockAsyncRetriever_AsyncRetriever10___retrieveNtB6_11Expectation9returningNCNCNvNtNtNtBe_6chains15basic_rag_chain21basic_rag_chain_testss_28test_streamed_chain_succeeds00EBe_
FN:40,_RINvMs6_NtNtNtNtCsfsPcvtvSBg5_13rag_toolchain10retrievers6traits40___mock_MockAsyncRetriever_AsyncRetriever10___retrieveNtB6_11Expectation4withINtNtCs7xKSZ3o61tT_10predicates3ord11EqPredicateReEIB2i_INtNtNtCsaYZPK01V26L_4core3num7nonzero7NonZeromEEEBe_
FN:40,_RNCNvMsa_NtNtNtNtCsfsPcvtvSBg5_13rag_toolchain10retrievers6traits40___mock_MockAsyncRetriever_AsyncRetriever10___retrieveNtB7_12Expectations4call0Bf_
FN:40,_RNCNvMsa_NtNtNtNtCsfsPcvtvSBg5_13rag_toolchain10retrievers6traits40___mock_MockAsyncRetriever_AsyncRetriever10___retrieveNtB7_12Expectations4calls_0Bf_
FNDA:2,_RNvMNtNtNtNtCsfsPcvtvSBg5_13rag_toolchain10retrievers6traits40___mock_MockAsyncRetriever_AsyncRetriever10___retrieveNtB2_5Rfunc8call_mut
FNDA:2,_RNvXs_NtNtNtNtCsfsPcvtvSBg5_13rag_toolchain10retrievers6traits40___mock_MockAsyncRetriever_AsyncRetriever10___retrieveNtB4_5RfuncNtNtCsaYZPK01V26L_4core7default7Default7default
FNDA:2,_RNvMs0_NtNtNtNtCsfsPcvtvSBg5_13rag_toolchain10retrievers6traits40___mock_MockAsyncRetriever_AsyncRetriever10___retrieveNtB5_7Matcher7matches
FNDA:2,_RNvXs1_NtNtNtNtCsfsPcvtvSBg5_13rag_toolchain10retrievers6traits40___mock_MockAsyncRetriever_AsyncRetriever10___retrieveNtB5_7MatcherNtNtCsaYZPK01V26L_4core7default7Default7default
FNDA:2,_RNvXs2_NtNtNtNtCsfsPcvtvSBg5_13rag_toolchain10retrievers6traits40___mock_MockAsyncRetriever_AsyncRetriever10___retrieveNtB5_7MatcherNtNtCsaYZPK01V26L_4core3fmt7Display3fmt
FNDA:2,_RNvXs3_NtNtNtNtCsfsPcvtvSBg5_13rag_toolchain10retrievers6traits40___mock_MockAsyncRetriever_AsyncRetriever10___retrieveNtB5_6CommonNtNtCsaYZPK01V26L_4core7default7Default7default
FNDA:0,_RNvMs4_NtNtNtNtCsfsPcvtvSBg5_13rag_toolchain10retrievers6traits40___mock_MockAsyncRetriever_AsyncRetriever10___retrieveNtB5_6Common4call
FNDA:2,_RNvMs4_NtNtNtNtCsfsPcvtvSBg5_13rag_toolchain10retrievers6traits40___mock_MockAsyncRetriever_AsyncRetriever10___retrieveNtB5_6Common7is_done
FNDA:2,_RNvMs4_NtNtNtNtCsfsPcvtvSBg5_13rag_toolchain10retrievers6traits40___mock_MockAsyncRetriever_AsyncRetriever10___retrieveNtB5_6Common7matches
FNDA:2,_RNvMs4_NtNtNtNtCsfsPcvtvSBg5_13rag_toolchain10retrievers6traits40___mock_MockAsyncRetriever_AsyncRetriever10___retrieveNtB5_6Common16satisfy_sequence
FNDA:2,_RNvMs4_NtNtNtNtCsfsPcvtvSBg5_13rag_toolchain10retrievers6traits40___mock_MockAsyncRetriever_AsyncRetriever10___retrieveNtB5_6Common15verify_sequence
FNDA:2,_RNvMs6_NtNtNtNtCsfsPcvtvSBg5_13rag_toolchain10retrievers6traits40___mock_MockAsyncRetriever_AsyncRetriever10___retrieveNtB5_11Expectation4call
FNDA:2,_RNvMs6_NtNtNtNtCsfsPcvtvSBg5_13rag_toolchain10retrievers6traits40___mock_MockAsyncRetriever_AsyncRetriever10___retrieveNtB5_11Expectation7is_done
FNDA:2,_RNvMs6_NtNtNtNtCsfsPcvtvSBg5_13rag_toolchain10retrievers6traits40___mock_MockAsyncRetriever_AsyncRetriever10___retrieveNtB5_11Expectation7matches
FNDA:2,_RNvXs7_NtNtNtNtCsfsPcvtvSBg5_13rag_toolchain10retrievers6traits40___mock_MockAsyncRetriever_AsyncRetriever10___retrieveNtB5_11ExpectationNtNtCsaYZPK01V26L_4core7default7Default7default
FNDA:2,_RNvMs8_NtNtNtNtCsfsPcvtvSBg5_13rag_toolchain10retrievers6traits40___mock_MockAsyncRetriever_AsyncRetriever10___retrieveNtB5_12Expectations6expect
FNDA:2,_RNvXs9_NtNtNtNtCsfsPcvtvSBg5_13rag_toolchain10retrievers6traits40___mock_MockAsyncRetriever_AsyncRetriever10___retrieveNtB5_12ExpectationsNtNtCsaYZPK01V26L_4core7default7Default7default
FNDA:2,_RNvMsa_NtNtNtNtCsfsPcvtvSBg5_13rag_toolchain10retrievers6traits40___mock_MockAsyncRetriever_AsyncRetriever10___retrieveNtB5_12Expectations4call
FNDA:2,_RNCNvXs2_NtNtCsfsPcvtvSBg5_13rag_toolchain10retrievers6traitsNtB7_18MockAsyncRetrieverNtB7_14AsyncRetriever8retrieve0Bb_
FNDA:0,_RNvMs4_NtNtNtNtCsfsPcvtvSBg5_13rag_toolchain10retrievers6traits40___mock_MockAsyncRetriever_AsyncRetriever10___retrieveNtB5_6Common11in_sequence
FNDA:0,_RNvMs4_NtNtNtNtCsfsPcvtvSBg5_13rag_toolchain10retrievers6traits40___mock_MockAsyncRetriever_AsyncRetriever10___retrieveNtB5_6Common5never
FNDA:0,_RINvMs4_NtNtNtNtCsfsPcvtvSBg5_13rag_toolchain10retrievers6traits40___mock_MockAsyncRetriever_AsyncRetriever10___retrieveNtB6_6Common5timespEBe_
FNDA:0,_RINvMs4_NtNtNtNtCsfsPcvtvSBg5_13rag_toolchain10retrievers6traits40___mock_MockAsyncRetriever_AsyncRetriever10___retrieveNtB6_6Common5withfpEBe_
FNDA:0,_RINvMs4_NtNtNtNtCsfsPcvtvSBg5_13rag_toolchain10retrievers6traits40___mock_MockAsyncRetriever_AsyncRetriever10___retrieveNtB6_6Common8withf_stpEBe_
FNDA:0,_RINvMs6_NtNtNtNtCsfsPcvtvSBg5_13rag_toolchain10retrievers6traits40___mock_MockAsyncRetriever_AsyncRetriever10___retrieveNtB6_11Expectation12return_constpEBe_
FNDA:0,_RNCINvMs6_NtNtNtNtCsfsPcvtvSBg5_13rag_toolchain10retrievers6traits40___mock_MockAsyncRetriever_AsyncRetriever10___retrieveNtB8_11Expectation12return_constpE0Bg_
FNDA:0,_RINvMs6_NtNtNtNtCsfsPcvtvSBg5_13rag_toolchain10retrievers6traits40___mock_MockAsyncRetriever_AsyncRetriever10___retrieveNtB6_11Expectation15return_const_stpEBe_
FNDA:0,_RNCINvMs6_NtNtNtNtCsfsPcvtvSBg5_13rag_toolchain10retrievers6traits40___mock_MockAsyncRetriever_AsyncRetriever10___retrieveNtB8_11Expectation15return_const_stpE0Bg_
FNDA:0,_RINvMs6_NtNtNtNtCsfsPcvtvSBg5_13rag_toolchain10retrievers6traits40___mock_MockAsyncRetriever_AsyncRetriever10___retrieveNtB6_11Expectation11return_oncepEBe_
FNDA:0,_RINvMs6_NtNtNtNtCsfsPcvtvSBg5_13rag_toolchain10retrievers6traits40___mock_MockAsyncRetriever_AsyncRetriever10___retrieveNtB6_11Expectation14return_once_stpEBe_
FNDA:0,_RINvMs6_NtNtNtNtCsfsPcvtvSBg5_13rag_toolchain10retrievers6traits40___mock_MockAsyncRetriever_AsyncRetriever10___retrieveNtB6_11Expectation12returning_stpEBe_
FNDA:0,_RNvMs6_NtNtNtNtCsfsPcvtvSBg5_13rag_toolchain10retrievers6traits40___mock_MockAsyncRetriever_AsyncRetriever10___retrieveNtB5_11Expectation11in_sequence
FNDA:0,_RNvMs6_NtNtNtNtCsfsPcvtvSBg5_13rag_toolchain10retrievers6traits40___mock_MockAsyncRetriever_AsyncRetriever10___retrieveNtB5_11Expectation5never
FNDA:0,_RNvMs6_NtNtNtNtCsfsPcvtvSBg5_13rag_toolchain10retrievers6traits40___mock_MockAsyncRetriever_AsyncRetriever10___retrieveNtB5_11Expectation3new
FNDA:0,_RNvMs6_NtNtNtNtCsfsPcvtvSBg5_13rag_toolchain10retrievers6traits40___mock_MockAsyncRetriever_AsyncRetriever10___retrieveNtB5_11Expectation4once
FNDA:0,_RINvMs6_NtNtNtNtCsfsPcvtvSBg5_13rag_toolchain10retrievers6traits40___mock_MockAsyncRetriever_AsyncRetriever10___retrieveNtB6_11Expectation5timespEBe_
FNDA:0,_RINvMs6_NtNtNtNtCsfsPcvtvSBg5_13rag_toolchain10retrievers6traits40___mock_MockAsyncRetriever_AsyncRetriever10___retrieveNtB6_11Expectation5withfpEBe_
FNDA:0,_RINvMs6_NtNtNtNtCsfsPcvtvSBg5_13rag_toolchain10retrievers6traits40___mock_MockAsyncRetriever_AsyncRetriever10___retrieveNtB6_11Expectation8withf_stpEBe_
FNDA:0,_RNvMs8_NtNtNtNtCsfsPcvtvSBg5_13rag_toolchain10retrievers6traits40___mock_MockAsyncRetriever_AsyncRetriever10___retrieveNtB5_12Expectations10checkpoint
FNDA:0,_RNvMs8_NtNtNtNtCsfsPcvtvSBg5_13rag_toolchain10retrievers6traits40___mock_MockAsyncRetriever_AsyncRetriever10___retrieveNtB5_12Expectations3new
FNDA:0,_RNvMs0_NtNtCsfsPcvtvSBg5_13rag_toolchain10retrievers6traitsNtB5_33MockAsyncRetriever_AsyncRetriever10checkpoint
FNDA:0,_RNvMs1_NtNtCsfsPcvtvSBg5_13rag_toolchain10retrievers6traitsNtB5_18MockAsyncRetriever10checkpoint
FNDA:2,_RNvXNtNtCsfsPcvtvSBg5_13rag_toolchain10retrievers6traitsNtB2_18MockAsyncRetrieverNtNtCsaYZPK01V26L_4core7default7Default7default
FNDA:2,_RNvXs_NtNtCsfsPcvtvSBg5_13rag_toolchain10retrievers6traitsNtB4_33MockAsyncRetriever_AsyncRetrieverNtNtCsaYZPK01V26L_4core7default7Default7default
FNDA:2,_RNvMs1_NtNtCsfsPcvtvSBg5_13rag_toolchain10retrievers6traitsNtB5_18MockAsyncRetriever3new
FNDA:2,_RNvXs2_NtNtCsfsPcvtvSBg5_13rag_toolchain10retrievers6traitsNtB5_18MockAsyncRetrieverNtB5_14AsyncRetriever8retrieve
FNDA:2,_RNvMs3_NtNtCsfsPcvtvSBg5_13rag_toolchain10retrievers6traitsNtB5_18MockAsyncRetriever15expect_retrieve
FNDA:2,_RNvXs5_NtNtNtNtCsfsPcvtvSBg5_13rag_toolchain10retrievers6traits40___mock_MockAsyncRetriever_AsyncRetriever10___retrieveNtB5_6CommonNtNtNtCsaYZPK01V26L_4core3ops4drop4Drop4drop
FNDA:4,_RNCNvMs0_NtNtNtNtCsfsPcvtvSBg5_13rag_toolchain10retrievers6traits40___mock_MockAsyncRetriever_AsyncRetriever10___retrieveNtB7_7Matcher7matches0Bf_
FNDA:0,_RNCNvMs4_NtNtNtNtCsfsPcvtvSBg5_13rag_toolchain10retrievers6traits40___mock_MockAsyncRetriever_AsyncRetriever10___retrieveNtB7_6Common4call0Bf_
FNDA:2,_RINvMs4_NtNtNtNtCsfsPcvtvSBg5_13rag_toolchain10retrievers6traits40___mock_MockAsyncRetriever_AsyncRetriever10___retrieveNtB6_6Common4withINtNtCs7xKSZ3o61tT_10predicates3ord11EqPredicateReEIB2c_INtNtNtCsaYZPK01V26L_4core3num7nonzero7NonZeromEEEBe_
FNDA:0,_RNCNvMs6_NtNtNtNtCsfsPcvtvSBg5_13rag_toolchain10retrievers6traits40___mock_MockAsyncRetriever_AsyncRetriever10___retrieveNtB7_11Expectation4call0Bf_
FNDA:1,_RINvMs6_NtNtNtNtCsfsPcvtvSBg5_13rag_toolchain10retrievers6traits40___mock_MockAsyncRetriever_AsyncRetriever10___retrieveNtB6_11Expectation9returningNCNCNvNtNtNtBe_6chains15basic_rag_chain21basic_rag_chain_testss_19test_chain_succeeds00EBe_
FNDA:1,_RINvMs6_NtNtNtNtCsfsPcvtvSBg5_13rag_toolchain10retrievers6traits40___mock_MockAsyncRetriever_AsyncRetriever10___retrieveNtB6_11Expectation9returningNCNCNvNtNtNtBe_6chains15basic_rag_chain21basic_rag_chain_testss_28test_streamed_chain_succeeds00EBe_
FNDA:2,_RINvMs6_NtNtNtNtCsfsPcvtvSBg5_13rag_toolchain10retrievers6traits40___mock_MockAsyncRetriever_AsyncRetriever10___retrieveNtB6_11Expectation4withINtNtCs7xKSZ3o61tT_10predicates3ord11EqPredicateReEIB2i_INtNtNtCsaYZPK01V26L_4core3num7nonzero7NonZeromEEEBe_
FNDA:2,_RNCNvMsa_NtNtNtNtCsfsPcvtvSBg5_13rag_toolchain10retrievers6traits40___mock_MockAsyncRetriever_AsyncRetriever10___retrieveNtB7_12Expectations4call0Bf_
FNDA:2,_RNCNvMsa_NtNtNtNtCsfsPcvtvSBg5_13rag_toolchain10retrievers6traits40___mock_MockAsyncRetriever_AsyncRetriever10___retrieveNtB7_12Expectations4calls_0Bf_
FNF:2
FNH:2
DA:40,14
DA:41,44
DA:42,2
DA:43,2
DA:44,2
DA:45,2
DA:46,22
BRF:0
BRH:0
LF:8
LH:8
end_of_record
SF:/root/project/rust-rag-toolchain/rag-toolchain/src/stores/postgres_vector_store.rs
FN:360,_RNCNvNtNtNtCsfsPcvtvSBg5_13rag_toolchain6stores21postgres_vector_store5testss_26test_throws_correct_errors0B9_
FN:117,_RINvMNtNtCsfsPcvtvSBg5_13rag_toolchain6stores21postgres_vector_storeNtB3_19PostgresVectorStore17try_new_with_poolpEB7_
FN:121,_RNCINvMNtNtCsfsPcvtvSBg5_13rag_toolchain6stores21postgres_vector_storeNtB5_19PostgresVectorStore17try_new_with_poolpE0B9_
FN:143,_RNvMNtNtCsfsPcvtvSBg5_13rag_toolchain6stores21postgres_vector_storeNtB2_19PostgresVectorStore8get_pool
FN:160,_RINvMNtNtCsfsPcvtvSBg5_13rag_toolchain6stores21postgres_vector_storeNtB3_19PostgresVectorStore12as_retrieverpEB7_
FN:230,_RNvMNtNtCsfsPcvtvSBg5_13rag_toolchain6stores21postgres_vector_storeNtB2_19PostgresVectorStore14insert_row_sql
FN:241,_RNvMNtNtCsfsPcvtvSBg5_13rag_toolchain6stores21postgres_vector_storeNtB2_19PostgresVectorStore13bind_to_query
FN:266,_RNvXs_NtNtCsfsPcvtvSBg5_13rag_toolchain6stores21postgres_vector_storeNtB4_19PostgresVectorStoreNtNtB6_6traits14EmbeddingStore5store
FN:266,_RNCNvXs_NtNtCsfsPcvtvSBg5_13rag_toolchain6stores21postgres_vector_storeNtB6_19PostgresVectorStoreNtNtB8_6traits14EmbeddingStore5store0Ba_
FN:286,_RNvXs_NtNtCsfsPcvtvSBg5_13rag_toolchain6stores21postgres_vector_storeNtB4_19PostgresVectorStoreNtNtB6_6traits14EmbeddingStore11store_batch
FN:286,_RNCNvXs_NtNtCsfsPcvtvSBg5_13rag_toolchain6stores21postgres_vector_storeNtB6_19PostgresVectorStoreNtNtB8_6traits14EmbeddingStore11store_batch0Ba_
FN:333,_RNvXs2_NtNtCsfsPcvtvSBg5_13rag_toolchain6stores21postgres_vector_storeNtB5_19PostgresVectorErrorNtNtCsaYZPK01V26L_4core3fmt7Display3fmt
FN:71,_RINvMNtNtCsfsPcvtvSBg5_13rag_toolchain6stores21postgres_vector_storeNtB3_19PostgresVectorStore7try_newNtNtNtB7_6common16embedding_shared20OpenAIEmbeddingModelEB7_
FN:74,_RNCINvMNtNtCsfsPcvtvSBg5_13rag_toolchain6stores21postgres_vector_storeNtB5_19PostgresVectorStore7try_newNtNtNtB9_6common16embedding_shared20OpenAIEmbeddingModelE0B9_
FN:184,_RNCNvMNtNtCsfsPcvtvSBg5_13rag_toolchain6stores21postgres_vector_storeNtB4_19PostgresVectorStore7connect0B8_
FN:209,_RNCNvMNtNtCsfsPcvtvSBg5_13rag_toolchain6stores21postgres_vector_storeNtB4_19PostgresVectorStore12create_table0B8_
FN:184,_RNvMNtNtCsfsPcvtvSBg5_13rag_toolchain6stores21postgres_vector_storeNtB2_19PostgresVectorStore7connect
FN:205,_RNvMNtNtCsfsPcvtvSBg5_13rag_toolchain6stores21postgres_vector_storeNtB2_19PostgresVectorStore12create_table
FN:327,_RNvXs1_NtNtCsfsPcvtvSBg5_13rag_toolchain6stores21postgres_vector_storeNtB5_19PostgresVectorErrorINtNtCsaYZPK01V26L_4core7convert4FromNtNtCsbpXXxgr6u8g_3std3env8VarErrorE4from
FN:360,_RNvNtNtNtCsfsPcvtvSBg5_13rag_toolchain6stores21postgres_vector_store5testss_26test_throws_correct_errors
FNDA:1,_RNCNvNtNtNtCsfsPcvtvSBg5_13rag_toolchain6stores21postgres_vector_store5testss_26test_throws_correct_errors0B9_
FNDA:0,_RINvMNtNtCsfsPcvtvSBg5_13rag_toolchain6stores21postgres_vector_storeNtB3_19PostgresVectorStore17try_new_with_poolpEB7_
FNDA:0,_RNCINvMNtNtCsfsPcvtvSBg5_13rag_toolchain6stores21postgres_vector_storeNtB5_19PostgresVectorStore17try_new_with_poolpE0B9_
FNDA:0,_RNvMNtNtCsfsPcvtvSBg5_13rag_toolchain6stores21postgres_vector_storeNtB2_19PostgresVectorStore8get_pool
FNDA:0,_RINvMNtNtCsfsPcvtvSBg5_13rag_toolchain6stores21postgres_vector_storeNtB3_19PostgresVectorStore12as_retrieverpEB7_
FNDA:0,_RNvMNtNtCsfsPcvtvSBg5_13rag_toolchain6stores21postgres_vector_storeNtB2_19PostgresVectorStore14insert_row_sql
FNDA:0,_RNvMNtNtCsfsPcvtvSBg5_13rag_toolchain6stores21postgres_vector_storeNtB2_19PostgresVectorStore13bind_to_query
FNDA:0,_RNvXs_NtNtCsfsPcvtvSBg5_13rag_toolchain6stores21postgres_vector_storeNtB4_19PostgresVectorStoreNtNtB6_6traits14EmbeddingStore5store
FNDA:0,_RNCNvXs_NtNtCsfsPcvtvSBg5_13rag_toolchain6stores21postgres_vector_storeNtB6_19PostgresVectorStoreNtNtB8_6traits14EmbeddingStore5store0Ba_
FNDA:0,_RNvXs_NtNtCsfsPcvtvSBg5_13rag_toolchain6stores21postgres_vector_storeNtB4_19PostgresVectorStoreNtNtB6_6traits14EmbeddingStore11store_batch
FNDA:0,_RNCNvXs_NtNtCsfsPcvtvSBg5_13rag_toolchain6stores21postgres_vector_storeNtB6_19PostgresVectorStoreNtNtB8_6traits14EmbeddingStore11store_batch0Ba_
FNDA:0,_RNvXs2_NtNtCsfsPcvtvSBg5_13rag_toolchain6stores21postgres_vector_storeNtB5_19PostgresVectorErrorNtNtCsaYZPK01V26L_4core3fmt7Display3fmt
FNDA:5,_RINvMNtNtCsfsPcvtvSBg5_13rag_toolchain6stores21postgres_vector_storeNtB3_19PostgresVectorStore7try_newNtNtNtB7_6common16embedding_shared20OpenAIEmbeddingModelEB7_
FNDA:5,_RNCINvMNtNtCsfsPcvtvSBg5_13rag_toolchain6stores21postgres_vector_storeNtB5_19PostgresVectorStore7try_newNtNtNtB9_6common16embedding_shared20OpenAIEmbeddingModelE0B9_
FNDA:1,_RNCNvMNtNtCsfsPcvtvSBg5_13rag_toolchain6stores21postgres_vector_storeNtB4_19PostgresVectorStore7connect0B8_
FNDA:0,_RNCNvMNtNtCsfsPcvtvSBg5_13rag_toolchain6stores21postgres_vector_storeNtB4_19PostgresVectorStore12create_table0B8_
FNDA:1,_RNvMNtNtCsfsPcvtvSBg5_13rag_toolchain6stores21postgres_vector_storeNtB2_19PostgresVectorStore7connect
FNDA:0,_RNvMNtNtCsfsPcvtvSBg5_13rag_toolchain6stores21postgres_vector_storeNtB2_19PostgresVectorStore12create_table
FNDA:4,_RNvXs1_NtNtCsfsPcvtvSBg5_13rag_toolchain6stores21postgres_vector_storeNtB5_19PostgresVectorErrorINtNtCsaYZPK01V26L_4core7convert4FromNtNtCsbpXXxgr6u8g_3std3env8VarErrorE4from
FNDA:1,_RNvNtNtNtCsfsPcvtvSBg5_13rag_toolchain6stores21postgres_vector_store5testss_26test_throws_correct_errors
FNF:20
FNH:7
DA:71,5
DA:72,5
DA:73,5
DA:74,5
DA:75,5
DA:76,5
DA:77,4
DA:78,3
DA:79,2
DA:81,1
DA:82,1
DA:83,1
DA:86,1
DA:87,42
DA:88,1
DA:91,0
DA:92,0
DA:93,0
DA:95,0
DA:96,0
DA:97,0
DA:98,0
DA:99,5
DA:117,0
DA:118,0
DA:119,0
DA:120,0
DA:121,0
DA:122,0
DA:123,0
DA:124,0
DA:125,0
DA:126,0
DA:127,0
DA:129,0
DA:130,0
DA:131,0
DA:132,0
DA:133,0
DA:143,0
DA:144,0
DA:145,0
DA:160,0
DA:161,0
DA:162,0
DA:163,0
DA:164,0
DA:165,0
DA:166,0
DA:167,0
DA:168,0
DA:169,0
DA:170,0
DA:171,0
DA:184,1
DA:185,1
DA:186,1
DA:187,1
DA:188,42
DA:189,0
DA:190,1
DA:205,0
DA:206,0
DA:207,0
DA:208,0
DA:209,0
DA:210,0
DA:211,0
DA:212,0
DA:213,0
DA:214,0
DA:215,0
DA:216,0
DA:217,0
DA:218,0
DA:219,0
DA:220,0
DA:230,0
DA:231,0
DA:232,0
DA:233,0
DA:234,0
DA:235,0
DA:241,0
DA:242,0
DA:243,0
DA:244,0
DA:245,0
DA:246,0
DA:247,0
DA:248,0
DA:249,0
DA:250,0
DA:266,0
DA:267,0
DA:268,0
DA:269,0
DA:270,0
DA:271,0
DA:272,0
DA:273,0
DA:286,0
DA:287,0
DA:288,0
DA:289,0
DA:290,0
DA:291,0
DA:292,0
DA:294,0
DA:295,0
DA:296,0
DA:297,0
DA:298,0
DA:301,0
DA:302,0
DA:303,0
DA:304,0
DA:305,0
DA:306,0
DA:327,4
DA:328,4
DA:329,4
DA:333,0
DA:334,0
DA:335,0
DA:336,0
DA:338,0
DA:339,0
DA:341,0
DA:342,0
DA:344,0
DA:345,0
DA:347,0
DA:348,0
DA:351,0
DA:360,1
DA:361,1
DA:362,1
DA:363,1
DA:364,1
DA:365,1
DA:366,1
DA:367,1
DA:368,1
DA:369,1
DA:370,1
DA:371,1
DA:372,1
DA:373,1
DA:374,1
DA:375,1
DA:376,1
DA:377,1
DA:378,1
DA:379,1
DA:380,1
DA:381,1
DA:382,1
DA:383,1
DA:384,1
DA:385,1
DA:386,42
DA:387,1
DA:388,1
DA:389,1
BRF:0
BRH:0
LF:196
LH:78
end_of_record
SF:/root/project/rust-rag-toolchain/rag-toolchain/src/stores/traits.rs
FN:35,_RNvXNtNtCsfsPcvtvSBg5_13rag_toolchain6stores6traitsNtB2_18MockEmbeddingStoreNtNtCsaYZPK01V26L_4core7default7Default7default
FN:35,_RNvMNtNtNtNtCsfsPcvtvSBg5_13rag_toolchain6stores6traits40___mock_MockEmbeddingStore_EmbeddingStore7___storeNtB2_5Rfunc8call_mut
FN:35,_RNvXs_NtNtNtNtCsfsPcvtvSBg5_13rag_toolchain6stores6traits40___mock_MockEmbeddingStore_EmbeddingStore7___storeNtB4_5RfuncNtNtCsaYZPK01V26L_4core7default7Default7default
FN:35,_RNvMs0_NtNtNtNtCsfsPcvtvSBg5_13rag_toolchain6stores6traits40___mock_MockEmbeddingStore_EmbeddingStore7___storeNtB5_7Matcher7matches
FN:35,_RNCNvMs0_NtNtNtNtCsfsPcvtvSBg5_13rag_toolchain6stores6traits40___mock_MockEmbeddingStore_EmbeddingStore7___storeNtB7_7Matcher7matches0Bf_
FN:35,_RNvXs1_NtNtNtNtCsfsPcvtvSBg5_13rag_toolchain6stores6traits40___mock_MockEmbeddingStore_EmbeddingStore7___storeNtB5_7MatcherNtNtCsaYZPK01V26L_4core7default7Default7default
FN:35,_RNvXs2_NtNtNtNtCsfsPcvtvSBg5_13rag_toolchain6stores6traits40___mock_MockEmbeddingStore_EmbeddingStore7___storeNtB5_7MatcherNtNtCsaYZPK01V26L_4core3fmt7Display3fmt
FN:35,_RNvXs3_NtNtNtNtCsfsPcvtvSBg5_13rag_toolchain6stores6traits40___mock_MockEmbeddingStore_EmbeddingStore7___storeNtB5_6CommonNtNtCsaYZPK01V26L_4core7default7Default7default
FN:43,_RNvMs4_NtNtNtNtCsfsPcvtvSBg5_13rag_toolchain6stores6traits40___mock_MockEmbeddingStore_EmbeddingStore7___storeNtB5_6Common4call
FN:35,_RNCNvMs4_NtNtNtNtCsfsPcvtvSBg5_13rag_toolchain6stores6traits40___mock_MockEmbeddingStore_EmbeddingStore7___storeNtB7_6Common4call0Bf_
FN:35,_RNvMs4_NtNtNtNtCsfsPcvtvSBg5_13rag_toolchain6stores6traits40___mock_MockEmbeddingStore_EmbeddingStore7___storeNtB5_6Common11in_sequence
FN:35,_RNvMs4_NtNtNtNtCsfsPcvtvSBg5_13rag_toolchain6stores6traits40___mock_MockEmbeddingStore_EmbeddingStore7___storeNtB5_6Common7is_done
FN:35,_RNvMs4_NtNtNtNtCsfsPcvtvSBg5_13rag_toolchain6stores6traits40___mock_MockEmbeddingStore_EmbeddingStore7___storeNtB5_6Common7matches
FN:35,_RNvMs4_NtNtNtNtCsfsPcvtvSBg5_13rag_toolchain6stores6traits40___mock_MockEmbeddingStore_EmbeddingStore7___storeNtB5_6Common5never
FN:35,_RNvMs4_NtNtNtNtCsfsPcvtvSBg5_13rag_toolchain6stores6traits40___mock_MockEmbeddingStore_EmbeddingStore7___storeNtB5_6Common16satisfy_sequence
FN:35,_RINvMs4_NtNtNtNtCsfsPcvtvSBg5_13rag_toolchain6stores6traits40___mock_MockEmbeddingStore_EmbeddingStore7___storeNtB6_6Common5timespEBe_
FN:35,_RINvMs4_NtNtNtNtCsfsPcvtvSBg5_13rag_toolchain6stores6traits40___mock_MockEmbeddingStore_EmbeddingStore7___storeNtB6_6Common4withpEBe_
FN:35,_RINvMs4_NtNtNtNtCsfsPcvtvSBg5_13rag_toolchain6stores6traits40___mock_MockEmbeddingStore_EmbeddingStore7___storeNtB6_6Common5withfpEBe_
FN:35,_RINvMs4_NtNtNtNtCsfsPcvtvSBg5_13rag_toolchain6stores6traits40___mock_MockEmbeddingStore_EmbeddingStore7___storeNtB6_6Common8withf_stpEBe_
FN:35,_RNvMs4_NtNtNtNtCsfsPcvtvSBg5_13rag_toolchain6stores6traits40___mock_MockEmbeddingStore_EmbeddingStore7___storeNtB5_6Common15verify_sequence
FN:35,_RNvXs5_NtNtNtNtCsfsPcvtvSBg5_13rag_toolchain6stores6traits40___mock_MockEmbeddingStore_EmbeddingStore7___storeNtB5_6CommonNtNtNtCsaYZPK01V26L_4core3ops4drop4Drop4drop
FN:43,_RNvMs6_NtNtNtNtCsfsPcvtvSBg5_13rag_toolchain6stores6traits40___mock_MockEmbeddingStore_EmbeddingStore7___storeNtB5_11Expectation4call
FN:35,_RNCNvMs6_NtNtNtNtCsfsPcvtvSBg5_13rag_toolchain6stores6traits40___mock_MockEmbeddingStore_EmbeddingStore7___storeNtB7_11Expectation4call0Bf_
FN:43,_RINvMs6_NtNtNtNtCsfsPcvtvSBg5_13rag_toolchain6stores6traits40___mock_MockEmbeddingStore_EmbeddingStore7___storeNtB6_11Expectation12return_constpEBe_
FN:35,_RNCINvMs6_NtNtNtNtCsfsPcvtvSBg5_13rag_toolchain6stores6traits40___mock_MockEmbeddingStore_EmbeddingStore7___storeNtB8_11Expectation12return_constpE0Bg_
FN:43,_RINvMs6_NtNtNtNtCsfsPcvtvSBg5_13rag_toolchain6stores6traits40___mock_MockEmbeddingStore_EmbeddingStore7___storeNtB6_11Expectation15return_const_stpEBe_
FN:35,_RNCINvMs6_NtNtNtNtCsfsPcvtvSBg5_13rag_toolchain6stores6traits40___mock_MockEmbeddingStore_EmbeddingStore7___storeNtB8_11Expectation15return_const_stpE0Bg_
FN:35,_RINvMs6_NtNtNtNtCsfsPcvtvSBg5_13rag_toolchain6stores6traits40___mock_MockEmbeddingStore_EmbeddingStore7___storeNtB6_11Expectation11return_oncepEBe_
FN:35,_RINvMs6_NtNtNtNtCsfsPcvtvSBg5_13rag_toolchain6stores6traits40___mock_MockEmbeddingStore_EmbeddingStore7___storeNtB6_11Expectation14return_once_stpEBe_
FN:35,_RINvMs6_NtNtNtNtCsfsPcvtvSBg5_13rag_toolchain6stores6traits40___mock_MockEmbeddingStore_EmbeddingStore7___storeNtB6_11Expectation9returningpEBe_
FN:35,_RINvMs6_NtNtNtNtCsfsPcvtvSBg5_13rag_toolchain6stores6traits40___mock_MockEmbeddingStore_EmbeddingStore7___storeNtB6_11Expectation12returning_stpEBe_
FN:35,_RNvMs6_NtNtNtNtCsfsPcvtvSBg5_13rag_toolchain6stores6traits40___mock_MockEmbeddingStore_EmbeddingStore7___storeNtB5_11Expectation11in_sequence
FN:35,_RNvMs6_NtNtNtNtCsfsPcvtvSBg5_13rag_toolchain6stores6traits40___mock_MockEmbeddingStore_EmbeddingStore7___storeNtB5_11Expectation7is_done
FN:35,_RNvMs6_NtNtNtNtCsfsPcvtvSBg5_13rag_toolchain6stores6traits40___mock_MockEmbeddingStore_EmbeddingStore7___storeNtB5_11Expectation7matches
FN:35,_RNvMs6_NtNtNtNtCsfsPcvtvSBg5_13rag_toolchain6stores6traits40___mock_MockEmbeddingStore_EmbeddingStore7___storeNtB5_11Expectation5never
FN:35,_RNvMs6_NtNtNtNtCsfsPcvtvSBg5_13rag_toolchain6stores6traits40___mock_MockEmbeddingStore_EmbeddingStore7___storeNtB5_11Expectation3new
FN:35,_RNvMs6_NtNtNtNtCsfsPcvtvSBg5_13rag_toolchain6stores6traits40___mock_MockEmbeddingStore_EmbeddingStore7___storeNtB5_11Expectation4once
FN:35,_RINvMs6_NtNtNtNtCsfsPcvtvSBg5_13rag_toolchain6stores6traits40___mock_MockEmbeddingStore_EmbeddingStore7___storeNtB6_11Expectation5timespEBe_
FN:35,_RINvMs6_NtNtNtNtCsfsPcvtvSBg5_13rag_toolchain6stores6traits40___mock_MockEmbeddingStore_EmbeddingStore7___storeNtB6_11Expectation4withpEBe_
FN:35,_RINvMs6_NtNtNtNtCsfsPcvtvSBg5_13rag_toolchain6stores6traits40___mock_MockEmbeddingStore_EmbeddingStore7___storeNtB6_11Expectation5withfpEBe_
FN:35,_RINvMs6_NtNtNtNtCsfsPcvtvSBg5_13rag_toolchain6stores6traits40___mock_MockEmbeddingStore_EmbeddingStore7___storeNtB6_11Expectation8withf_stpEBe_
FN:35,_RNvXs7_NtNtNtNtCsfsPcvtvSBg5_13rag_toolchain6stores6traits40___mock_MockEmbeddingStore_EmbeddingStore7___storeNtB5_11ExpectationNtNtCsaYZPK01V26L_4core7default7Default7default
FN:35,_RNvMs8_NtNtNtNtCsfsPcvtvSBg5_13rag_toolchain6stores6traits40___mock_MockEmbeddingStore_EmbeddingStore7___storeNtB5_12Expectations10checkpoint
FN:35,_RNvMs8_NtNtNtNtCsfsPcvtvSBg5_13rag_toolchain6stores6traits40___mock_MockEmbeddingStore_EmbeddingStore7___storeNtB5_12Expectations6expect
FN:35,_RNvMs8_NtNtNtNtCsfsPcvtvSBg5_13rag_toolchain6stores6traits40___mock_MockEmbeddingStore_EmbeddingStore7___storeNtB5_12Expectations3new
FN:35,_RNvXs9_NtNtNtNtCsfsPcvtvSBg5_13rag_toolchain6stores6traits40___mock_MockEmbeddingStore_EmbeddingStore7___storeNtB5_12ExpectationsNtNtCsaYZPK01V26L_4core7default7Default7default
FN:43,_RNvMsa_NtNtNtNtCsfsPcvtvSBg5_13rag_toolchain6stores6traits40___mock_MockEmbeddingStore_EmbeddingStore7___storeNtB5_12Expectations4call
FN:35,_RNCNvMsa_NtNtNtNtCsfsPcvtvSBg5_13rag_toolchain6stores6traits40___mock_MockEmbeddingStore_EmbeddingStore7___storeNtB7_12Expectations4call0Bf_
FN:35,_RNCNvMsa_NtNtNtNtCsfsPcvtvSBg5_13rag_toolchain6stores6traits40___mock_MockEmbeddingStore_EmbeddingStore7___storeNtB7_12Expectations4calls_0Bf_
FN:35,_RNvMNtNtNtNtCsfsPcvtvSBg5_13rag_toolchain6stores6traits40___mock_MockEmbeddingStore_EmbeddingStore13___store_batchNtB2_5Rfunc8call_mut
FN:35,_RNvXs_NtNtNtNtCsfsPcvtvSBg5_13rag_toolchain6stores6traits40___mock_MockEmbeddingStore_EmbeddingStore13___store_batchNtB4_5RfuncNtNtCsaYZPK01V26L_4core7default7Default7default
FN:35,_RNvMs0_NtNtNtNtCsfsPcvtvSBg5_13rag_toolchain6stores6traits40___mock_MockEmbeddingStore_EmbeddingStore13___store_batchNtB5_7Matcher7matches
FN:35,_RNCNvMs0_NtNtNtNtCsfsPcvtvSBg5_13rag_toolchain6stores6traits40___mock_MockEmbeddingStore_EmbeddingStore13___store_batchNtB7_7Matcher7matches0Bf_
FN:35,_RNvXs1_NtNtNtNtCsfsPcvtvSBg5_13rag_toolchain6stores6traits40___mock_MockEmbeddingStore_EmbeddingStore13___store_batchNtB5_7MatcherNtNtCsaYZPK01V26L_4core7default7Default7default
FN:35,_RNvXs2_NtNtNtNtCsfsPcvtvSBg5_13rag_toolchain6stores6traits40___mock_MockEmbeddingStore_EmbeddingStore13___store_batchNtB5_7MatcherNtNtCsaYZPK01V26L_4core3fmt7Display3fmt
FN:35,_RNvXs3_NtNtNtNtCsfsPcvtvSBg5_13rag_toolchain6stores6traits40___mock_MockEmbeddingStore_EmbeddingStore13___store_batchNtB5_6CommonNtNtCsaYZPK01V26L_4core7default7Default7default
FN:43,_RNvMs4_NtNtNtNtCsfsPcvtvSBg5_13rag_toolchain6stores6traits40___mock_MockEmbeddingStore_EmbeddingStore13___store_batchNtB5_6Common4call
FN:35,_RNCNvMs4_NtNtNtNtCsfsPcvtvSBg5_13rag_toolchain6stores6traits40___mock_MockEmbeddingStore_EmbeddingStore13___store_batchNtB7_6Common4call0Bf_
FN:35,_RNvMs4_NtNtNtNtCsfsPcvtvSBg5_13rag_toolchain6stores6traits40___mock_MockEmbeddingStore_EmbeddingStore13___store_batchNtB5_6Common11in_sequence
FN:35,_RNvMs4_NtNtNtNtCsfsPcvtvSBg5_13rag_toolchain6stores6traits40___mock_MockEmbeddingStore_EmbeddingStore13___store_batchNtB5_6Common7is_done
FN:35,_RNvMs4_NtNtNtNtCsfsPcvtvSBg5_13rag_toolchain6stores6traits40___mock_MockEmbeddingStore_EmbeddingStore13___store_batchNtB5_6Common7matches
FN:35,_RNvMs4_NtNtNtNtCsfsPcvtvSBg5_13rag_toolchain6stores6traits40___mock_MockEmbeddingStore_EmbeddingStore13___store_batchNtB5_6Common5never
FN:35,_RNvMs4_NtNtNtNtCsfsPcvtvSBg5_13rag_toolchain6stores6traits40___mock_MockEmbeddingStore_EmbeddingStore13___store_batchNtB5_6Common16satisfy_sequence
FN:35,_RINvMs4_NtNtNtNtCsfsPcvtvSBg5_13rag_toolchain6stores6traits40___mock_MockEmbeddingStore_EmbeddingStore13___store_batchNtB6_6Common5timespEBe_
FN:35,_RINvMs4_NtNtNtNtCsfsPcvtvSBg5_13rag_toolchain6stores6traits40___mock_MockEmbeddingStore_EmbeddingStore13___store_batchNtB6_6Common4withpEBe_
FN:35,_RINvMs4_NtNtNtNtCsfsPcvtvSBg5_13rag_toolchain6stores6traits40___mock_MockEmbeddingStore_EmbeddingStore13___store_batchNtB6_6Common5withfpEBe_
FN:35,_RINvMs4_NtNtNtNtCsfsPcvtvSBg5_13rag_toolchain6stores6traits40___mock_MockEmbeddingStore_EmbeddingStore13___store_batchNtB6_6Common8withf_stpEBe_
FN:35,_RNvMs4_NtNtNtNtCsfsPcvtvSBg5_13rag_toolchain6stores6traits40___mock_MockEmbeddingStore_EmbeddingStore13___store_batchNtB5_6Common15verify_sequence
FN:35,_RNvXs5_NtNtNtNtCsfsPcvtvSBg5_13rag_toolchain6stores6traits40___mock_MockEmbeddingStore_EmbeddingStore13___store_batchNtB5_6CommonNtNtNtCsaYZPK01V26L_4core3ops4drop4Drop4drop
FN:43,_RNvMs6_NtNtNtNtCsfsPcvtvSBg5_13rag_toolchain6stores6traits40___mock_MockEmbeddingStore_EmbeddingStore13___store_batchNtB5_11Expectation4call
FN:35,_RNCNvMs6_NtNtNtNtCsfsPcvtvSBg5_13rag_toolchain6stores6traits40___mock_MockEmbeddingStore_EmbeddingStore13___store_batchNtB7_11Expectation4call0Bf_
FN:43,_RINvMs6_NtNtNtNtCsfsPcvtvSBg5_13rag_toolchain6stores6traits40___mock_MockEmbeddingStore_EmbeddingStore13___store_batchNtB6_11Expectation12return_constpEBe_
FN:35,_RNCINvMs6_NtNtNtNtCsfsPcvtvSBg5_13rag_toolchain6stores6traits40___mock_MockEmbeddingStore_EmbeddingStore13___store_batchNtB8_11Expectation12return_constpE0Bg_
FN:43,_RINvMs6_NtNtNtNtCsfsPcvtvSBg5_13rag_toolchain6stores6traits40___mock_MockEmbeddingStore_EmbeddingStore13___store_batchNtB6_11Expectation15return_const_stpEBe_
FN:35,_RNCINvMs6_NtNtNtNtCsfsPcvtvSBg5_13rag_toolchain6stores6traits40___mock_MockEmbeddingStore_EmbeddingStore13___store_batchNtB8_11Expectation15return_const_stpE0Bg_
FN:35,_RINvMs6_NtNtNtNtCsfsPcvtvSBg5_13rag_toolchain6stores6traits40___mock_MockEmbeddingStore_EmbeddingStore13___store_batchNtB6_11Expectation11return_oncepEBe_
FN:35,_RINvMs6_NtNtNtNtCsfsPcvtvSBg5_13rag_toolchain6stores6traits40___mock_MockEmbeddingStore_EmbeddingStore13___store_batchNtB6_11Expectation14return_once_stpEBe_
FN:35,_RINvMs6_NtNtNtNtCsfsPcvtvSBg5_13rag_toolchain6stores6traits40___mock_MockEmbeddingStore_EmbeddingStore13___store_batchNtB6_11Expectation9returningpEBe_
FN:35,_RINvMs6_NtNtNtNtCsfsPcvtvSBg5_13rag_toolchain6stores6traits40___mock_MockEmbeddingStore_EmbeddingStore13___store_batchNtB6_11Expectation12returning_stpEBe_
FN:35,_RNvMs6_NtNtNtNtCsfsPcvtvSBg5_13rag_toolchain6stores6traits40___mock_MockEmbeddingStore_EmbeddingStore13___store_batchNtB5_11Expectation11in_sequence
FN:35,_RNvMs6_NtNtNtNtCsfsPcvtvSBg5_13rag_toolchain6stores6traits40___mock_MockEmbeddingStore_EmbeddingStore13___store_batchNtB5_11Expectation7is_done
FN:35,_RNvMs6_NtNtNtNtCsfsPcvtvSBg5_13rag_toolchain6stores6traits40___mock_MockEmbeddingStore_EmbeddingStore13___store_batchNtB5_11Expectation7matches
FN:35,_RNvMs6_NtNtNtNtCsfsPcvtvSBg5_13rag_toolchain6stores6traits40___mock_MockEmbeddingStore_EmbeddingStore13___store_batchNtB5_11Expectation5never
FN:35,_RNvMs6_NtNtNtNtCsfsPcvtvSBg5_13rag_toolchain6stores6traits40___mock_MockEmbeddingStore_EmbeddingStore13___store_batchNtB5_11Expectation3new
FN:35,_RNvMs6_NtNtNtNtCsfsPcvtvSBg5_13rag_toolchain6stores6traits40___mock_MockEmbeddingStore_EmbeddingStore13___store_batchNtB5_11Expectation4once
FN:35,_RINvMs6_NtNtNtNtCsfsPcvtvSBg5_13rag_toolchain6stores6traits40___mock_MockEmbeddingStore_EmbeddingStore13___store_batchNtB6_11Expectation5timespEBe_
FN:35,_RINvMs6_NtNtNtNtCsfsPcvtvSBg5_13rag_toolchain6stores6traits40___mock_MockEmbeddingStore_EmbeddingStore13___store_batchNtB6_11Expectation4withpEBe_
FN:35,_RINvMs6_NtNtNtNtCsfsPcvtvSBg5_13rag_toolchain6stores6traits40___mock_MockEmbeddingStore_EmbeddingStore13___store_batchNtB6_11Expectation5withfpEBe_
FN:35,_RINvMs6_NtNtNtNtCsfsPcvtvSBg5_13rag_toolchain6stores6traits40___mock_MockEmbeddingStore_EmbeddingStore13___store_batchNtB6_11Expectation8withf_stpEBe_
FN:35,_RNvXs7_NtNtNtNtCsfsPcvtvSBg5_13rag_toolchain6stores6traits40___mock_MockEmbeddingStore_EmbeddingStore13___store_batchNtB5_11ExpectationNtNtCsaYZPK01V26L_4core7default7Default7default
FN:35,_RNvMs8_NtNtNtNtCsfsPcvtvSBg5_13rag_toolchain6stores6traits40___mock_MockEmbeddingStore_EmbeddingStore13___store_batchNtB5_12Expectations10checkpoint
FN:35,_RNvMs8_NtNtNtNtCsfsPcvtvSBg5_13rag_toolchain6stores6traits40___mock_MockEmbeddingStore_EmbeddingStore13___store_batchNtB5_12Expectations6expect
FN:35,_RNvMs8_NtNtNtNtCsfsPcvtvSBg5_13rag_toolchain6stores6traits40___mock_MockEmbeddingStore_EmbeddingStore13___store_batchNtB5_12Expectations3new
FN:35,_RNvXs9_NtNtNtNtCsfsPcvtvSBg5_13rag_toolchain6stores6traits40___mock_MockEmbeddingStore_EmbeddingStore13___store_batchNtB5_12ExpectationsNtNtCsaYZPK01V26L_4core7default7Default7default
FN:43,_RNvMsa_NtNtNtNtCsfsPcvtvSBg5_13rag_toolchain6stores6traits40___mock_MockEmbeddingStore_EmbeddingStore13___store_batchNtB5_12Expectations4call
FN:35,_RNCNvMsa_NtNtNtNtCsfsPcvtvSBg5_13rag_toolchain6stores6traits40___mock_MockEmbeddingStore_EmbeddingStore13___store_batchNtB7_12Expectations4call0Bf_
FN:35,_RNCNvMsa_NtNtNtNtCsfsPcvtvSBg5_13rag_toolchain6stores6traits40___mock_MockEmbeddingStore_EmbeddingStore13___store_batchNtB7_12Expectations4calls_0Bf_
FN:35,_RNvXs_NtNtCsfsPcvtvSBg5_13rag_toolchain6stores6traitsNtB4_33MockEmbeddingStore_EmbeddingStoreNtNtCsaYZPK01V26L_4core7default7Default7default
FN:35,_RNvMs0_NtNtCsfsPcvtvSBg5_13rag_toolchain6stores6traitsNtB5_33MockEmbeddingStore_EmbeddingStore10checkpoint
FN:35,_RNvMs1_NtNtCsfsPcvtvSBg5_13rag_toolchain6stores6traitsNtB5_18MockEmbeddingStore10checkpoint
FN:35,_RNvMs1_NtNtCsfsPcvtvSBg5_13rag_toolchain6stores6traitsNtB5_18MockEmbeddingStore3new
FN:35,_RNvXs2_NtNtCsfsPcvtvSBg5_13rag_toolchain6stores6traitsNtB5_18MockEmbeddingStoreNtB5_14EmbeddingStore5store
FN:35,_RNCNvXs2_NtNtCsfsPcvtvSBg5_13rag_toolchain6stores6traitsNtB7_18MockEmbeddingStoreNtB7_14EmbeddingStore5store0Bb_
FN:35,_RNvXs2_NtNtCsfsPcvtvSBg5_13rag_toolchain6stores6traitsNtB5_18MockEmbeddingStoreNtB5_14EmbeddingStore11store_batch
FN:35,_RNCNvXs2_NtNtCsfsPcvtvSBg5_13rag_toolchain6stores6traitsNtB7_18MockEmbeddingStoreNtB7_14EmbeddingStore11store_batch0Bb_
FN:35,_RNvMs3_NtNtCsfsPcvtvSBg5_13rag_toolchain6stores6traitsNtB5_18MockEmbeddingStore12expect_store
FN:35,_RNvMs3_NtNtCsfsPcvtvSBg5_13rag_toolchain6stores6traitsNtB5_18MockEmbeddingStore18expect_store_batch
FNDA:0,_RNvXNtNtCsfsPcvtvSBg5_13rag_toolchain6stores6traitsNtB2_18MockEmbeddingStoreNtNtCsaYZPK01V26L_4core7default7Default7default
FNDA:0,_RNvMNtNtNtNtCsfsPcvtvSBg5_13rag_toolchain6stores6traits40___mock_MockEmbeddingStore_EmbeddingStore7___storeNtB2_5Rfunc8call_mut
FNDA:0,_RNvXs_NtNtNtNtCsfsPcvtvSBg5_13rag_toolchain6stores6traits40___mock_MockEmbeddingStore_EmbeddingStore7___storeNtB4_5RfuncNtNtCsaYZPK01V26L_4core7default7Default7default
FNDA:0,_RNvMs0_NtNtNtNtCsfsPcvtvSBg5_13rag_toolchain6stores6traits40___mock_MockEmbeddingStore_EmbeddingStore7___storeNtB5_7Matcher7matches
FNDA:0,_RNCNvMs0_NtNtNtNtCsfsPcvtvSBg5_13rag_toolchain6stores6traits40___mock_MockEmbeddingStore_EmbeddingStore7___storeNtB7_7Matcher7matches0Bf_
FNDA:0,_RNvXs1_NtNtNtNtCsfsPcvtvSBg5_13rag_toolchain6stores6traits40___mock_MockEmbeddingStore_EmbeddingStore7___storeNtB5_7MatcherNtNtCsaYZPK01V26L_4core7default7Default7default
FNDA:0,_RNvXs2_NtNtNtNtCsfsPcvtvSBg5_13rag_toolchain6stores6traits40___mock_MockEmbeddingStore_EmbeddingStore7___storeNtB5_7MatcherNtNtCsaYZPK01V26L_4core3fmt7Display3fmt
FNDA:0,_RNvXs3_NtNtNtNtCsfsPcvtvSBg5_13rag_toolchain6stores6traits40___mock_MockEmbeddingStore_EmbeddingStore7___storeNtB5_6CommonNtNtCsaYZPK01V26L_4core7default7Default7default
FNDA:0,_RNvMs4_NtNtNtNtCsfsPcvtvSBg5_13rag_toolchain6stores6traits40___mock_MockEmbeddingStore_EmbeddingStore7___storeNtB5_6Common4call
FNDA:0,_RNCNvMs4_NtNtNtNtCsfsPcvtvSBg5_13rag_toolchain6stores6traits40___mock_MockEmbeddingStore_EmbeddingStore7___storeNtB7_6Common4call0Bf_
FNDA:0,_RNvMs4_NtNtNtNtCsfsPcvtvSBg5_13rag_toolchain6stores6traits40___mock_MockEmbeddingStore_EmbeddingStore7___storeNtB5_6Common11in_sequence
FNDA:0,_RNvMs4_NtNtNtNtCsfsPcvtvSBg5_13rag_toolchain6stores6traits40___mock_MockEmbeddingStore_EmbeddingStore7___storeNtB5_6Common7is_done
FNDA:0,_RNvMs4_NtNtNtNtCsfsPcvtvSBg5_13rag_toolchain6stores6traits40___mock_MockEmbeddingStore_EmbeddingStore7___storeNtB5_6Common7matches
FNDA:0,_RNvMs4_NtNtNtNtCsfsPcvtvSBg5_13rag_toolchain6stores6traits40___mock_MockEmbeddingStore_EmbeddingStore7___storeNtB5_6Common5never
FNDA:0,_RNvMs4_NtNtNtNtCsfsPcvtvSBg5_13rag_toolchain6stores6traits40___mock_MockEmbeddingStore_EmbeddingStore7___storeNtB5_6Common16satisfy_sequence
FNDA:0,_RINvMs4_NtNtNtNtCsfsPcvtvSBg5_13rag_toolchain6stores6traits40___mock_MockEmbeddingStore_EmbeddingStore7___storeNtB6_6Common5timespEBe_
FNDA:0,_RINvMs4_NtNtNtNtCsfsPcvtvSBg5_13rag_toolchain6stores6traits40___mock_MockEmbeddingStore_EmbeddingStore7___storeNtB6_6Common4withpEBe_
FNDA:0,_RINvMs4_NtNtNtNtCsfsPcvtvSBg5_13rag_toolchain6stores6traits40___mock_MockEmbeddingStore_EmbeddingStore7___storeNtB6_6Common5withfpEBe_
FNDA:0,_RINvMs4_NtNtNtNtCsfsPcvtvSBg5_13rag_toolchain6stores6traits40___mock_MockEmbeddingStore_EmbeddingStore7___storeNtB6_6Common8withf_stpEBe_
FNDA:0,_RNvMs4_NtNtNtNtCsfsPcvtvSBg5_13rag_toolchain6stores6traits40___mock_MockEmbeddingStore_EmbeddingStore7___storeNtB5_6Common15verify_sequence
FNDA:0,_RNvXs5_NtNtNtNtCsfsPcvtvSBg5_13rag_toolchain6stores6traits40___mock_MockEmbeddingStore_EmbeddingStore7___storeNtB5_6CommonNtNtNtCsaYZPK01V26L_4core3ops4drop4Drop4drop
FNDA:0,_RNvMs6_NtNtNtNtCsfsPcvtvSBg5_13rag_toolchain6stores6traits40___mock_MockEmbeddingStore_EmbeddingStore7___storeNtB5_11Expectation4call
FNDA:0,_RNCNvMs6_NtNtNtNtCsfsPcvtvSBg5_13rag_toolchain6stores6traits40___mock_MockEmbeddingStore_EmbeddingStore7___storeNtB7_11Expectation4call0Bf_
FNDA:0,_RINvMs6_NtNtNtNtCsfsPcvtvSBg5_13rag_toolchain6stores6traits40___mock_MockEmbeddingStore_EmbeddingStore7___storeNtB6_11Expectation12return_constpEBe_
FNDA:0,_RNCINvMs6_NtNtNtNtCsfsPcvtvSBg5_13rag_toolchain6stores6traits40___mock_MockEmbeddingStore_EmbeddingStore7___storeNtB8_11Expectation12return_constpE0Bg_
FNDA:0,_RINvMs6_NtNtNtNtCsfsPcvtvSBg5_13rag_toolchain6stores6traits40___mock_MockEmbeddingStore_EmbeddingStore7___storeNtB6_11Expectation15return_const_stpEBe_
FNDA:0,_RNCINvMs6_NtNtNtNtCsfsPcvtvSBg5_13rag_toolchain6stores6traits40___mock_MockEmbeddingStore_EmbeddingStore7___storeNtB8_11Expectation15return_const_stpE0Bg_
FNDA:0,_RINvMs6_NtNtNtNtCsfsPcvtvSBg5_13rag_toolchain6stores6traits40___mock_MockEmbeddingStore_EmbeddingStore7___storeNtB6_11Expectation11return_oncepEBe_
FNDA:0,_RINvMs6_NtNtNtNtCsfsPcvtvSBg5_13rag_toolchain6stores6traits40___mock_MockEmbeddingStore_EmbeddingStore7___storeNtB6_11Expectation14return_once_stpEBe_
FNDA:0,_RINvMs6_NtNtNtNtCsfsPcvtvSBg5_13rag_toolchain6stores6traits40___mock_MockEmbeddingStore_EmbeddingStore7___storeNtB6_11Expectation9returningpEBe_
FNDA:0,_RINvMs6_NtNtNtNtCsfsPcvtvSBg5_13rag_toolchain6stores6traits40___mock_MockEmbeddingStore_EmbeddingStore7___storeNtB6_11Expectation12returning_stpEBe_
FNDA:0,_RNvMs6_NtNtNtNtCsfsPcvtvSBg5_13rag_toolchain6stores6traits40___mock_MockEmbeddingStore_EmbeddingStore7___storeNtB5_11Expectation11in_sequence
FNDA:0,_RNvMs6_NtNtNtNtCsfsPcvtvSBg5_13rag_toolchain6stores6traits40___mock_MockEmbeddingStore_EmbeddingStore7___storeNtB5_11Expectation7is_done
FNDA:0,_RNvMs6_NtNtNtNtCsfsPcvtvSBg5_13rag_toolchain6stores6traits40___mock_MockEmbeddingStore_EmbeddingStore7___storeNtB5_11Expectation7matches
FNDA:0,_RNvMs6_NtNtNtNtCsfsPcvtvSBg5_13rag_toolchain6stores6traits40___mock_MockEmbeddingStore_EmbeddingStore7___storeNtB5_11Expectation5never
FNDA:0,_RNvMs6_NtNtNtNtCsfsPcvtvSBg5_13rag_toolchain6stores6traits40___mock_MockEmbeddingStore_EmbeddingStore7___storeNtB5_11Expectation3new
FNDA:0,_RNvMs6_NtNtNtNtCsfsPcvtvSBg5_13rag_toolchain6stores6traits40___mock_MockEmbeddingStore_EmbeddingStore7___storeNtB5_11Expectation4once
FNDA:0,_RINvMs6_NtNtNtNtCsfsPcvtvSBg5_13rag_toolchain6stores6traits40___mock_MockEmbeddingStore_EmbeddingStore7___storeNtB6_11Expectation5timespEBe_
FNDA:0,_RINvMs6_NtNtNtNtCsfsPcvtvSBg5_13rag_toolchain6stores6traits40___mock_MockEmbeddingStore_EmbeddingStore7___storeNtB6_11Expectation4withpEBe_
FNDA:0,_RINvMs6_NtNtNtNtCsfsPcvtvSBg5_13rag_toolchain6stores6traits40___mock_MockEmbeddingStore_EmbeddingStore7___storeNtB6_11Expectation5withfpEBe_
FNDA:0,_RINvMs6_NtNtNtNtCsfsPcvtvSBg5_13rag_toolchain6stores6traits40___mock_MockEmbeddingStore_EmbeddingStore7___storeNtB6_11Expectation8withf_stpEBe_
FNDA:0,_RNvXs7_NtNtNtNtCsfsPcvtvSBg5_13rag_toolchain6stores6traits40___mock_MockEmbeddingStore_EmbeddingStore7___storeNtB5_11ExpectationNtNtCsaYZPK01V26L_4core7default7Default7default
FNDA:0,_RNvMs8_NtNtNtNtCsfsPcvtvSBg5_13rag_toolchain6stores6traits40___mock_MockEmbeddingStore_EmbeddingStore7___storeNtB5_12Expectations10checkpoint
FNDA:0,_RNvMs8_NtNtNtNtCsfsPcvtvSBg5_13rag_toolchain6stores6traits40___mock_MockEmbeddingStore_EmbeddingStore7___storeNtB5_12Expectations6expect
FNDA:0,_RNvMs8_NtNtNtNtCsfsPcvtvSBg5_13rag_toolchain6stores6traits40___mock_MockEmbeddingStore_EmbeddingStore7___storeNtB5_12Expectations3new
FNDA:0,_RNvXs9_NtNtNtNtCsfsPcvtvSBg5_13rag_toolchain6stores6traits40___mock_MockEmbeddingStore_EmbeddingStore7___storeNtB5_12ExpectationsNtNtCsaYZPK01V26L_4core7default7Default7default
FNDA:0,_RNvMsa_NtNtNtNtCsfsPcvtvSBg5_13rag_toolchain6stores6traits40___mock_MockEmbeddingStore_EmbeddingStore7___storeNtB5_12Expectations4call
FNDA:0,_RNCNvMsa_NtNtNtNtCsfsPcvtvSBg5_13rag_toolchain6stores6traits40___mock_MockEmbeddingStore_EmbeddingStore7___storeNtB7_12Expectations4call0Bf_
FNDA:0,_RNCNvMsa_NtNtNtNtCsfsPcvtvSBg5_13rag_toolchain6stores6traits40___mock_MockEmbeddingStore_EmbeddingStore7___storeNtB7_12Expectations4calls_0Bf_
FNDA:0,_RNvMNtNtNtNtCsfsPcvtvSBg5_13rag_toolchain6stores6traits40___mock_MockEmbeddingStore_EmbeddingStore13___store_batchNtB2_5Rfunc8call_mut
FNDA:0,_RNvXs_NtNtNtNtCsfsPcvtvSBg5_13rag_toolchain6stores6traits40___mock_MockEmbeddingStore_EmbeddingStore13___store_batchNtB4_5RfuncNtNtCsaYZPK01V26L_4core7default7Default7default
FNDA:0,_RNvMs0_NtNtNtNtCsfsPcvtvSBg5_13rag_toolchain6stores6traits40___mock_MockEmbeddingStore_EmbeddingStore13___store_batchNtB5_7Matcher7matches
FNDA:0,_RNCNvMs0_NtNtNtNtCsfsPcvtvSBg5_13rag_toolchain6stores6traits40___mock_MockEmbeddingStore_EmbeddingStore13___store_batchNtB7_7Matcher7matches0Bf_
FNDA:0,_RNvXs1_NtNtNtNtCsfsPcvtvSBg5_13rag_toolchain6stores6traits40___mock_MockEmbeddingStore_EmbeddingStore13___store_batchNtB5_7MatcherNtNtCsaYZPK01V26L_4core7default7Default7default
FNDA:0,_RNvXs2_NtNtNtNtCsfsPcvtvSBg5_13rag_toolchain6stores6traits40___mock_MockEmbeddingStore_EmbeddingStore13___store_batchNtB5_7MatcherNtNtCsaYZPK01V26L_4core3fmt7Display3fmt
FNDA:0,_RNvXs3_NtNtNtNtCsfsPcvtvSBg5_13rag_toolchain6stores6traits40___mock_MockEmbeddingStore_EmbeddingStore13___store_batchNtB5_6CommonNtNtCsaYZPK01V26L_4core7default7Default7default
FNDA:0,_RNvMs4_NtNtNtNtCsfsPcvtvSBg5_13rag_toolchain6stores6traits40___mock_MockEmbeddingStore_EmbeddingStore13___store_batchNtB5_6Common4call
FNDA:0,_RNCNvMs4_NtNtNtNtCsfsPcvtvSBg5_13rag_toolchain6stores6traits40___mock_MockEmbeddingStore_EmbeddingStore13___store_batchNtB7_6Common4call0Bf_
FNDA:0,_RNvMs4_NtNtNtNtCsfsPcvtvSBg5_13rag_toolchain6stores6traits40___mock_MockEmbeddingStore_EmbeddingStore13___store_batchNtB5_6Common11in_sequence
FNDA:0,_RNvMs4_NtNtNtNtCsfsPcvtvSBg5_13rag_toolchain6stores6traits40___mock_MockEmbeddingStore_EmbeddingStore13___store_batchNtB5_6Common7is_done
FNDA:0,_RNvMs4_NtNtNtNtCsfsPcvtvSBg5_13rag_toolchain6stores6traits40___mock_MockEmbeddingStore_EmbeddingStore13___store_batchNtB5_6Common7matches
FNDA:0,_RNvMs4_NtNtNtNtCsfsPcvtvSBg5_13rag_toolchain6stores6traits40___mock_MockEmbeddingStore_EmbeddingStore13___store_batchNtB5_6Common5never
FNDA:0,_RNvMs4_NtNtNtNtCsfsPcvtvSBg5_13rag_toolchain6stores6traits40___mock_MockEmbeddingStore_EmbeddingStore13___store_batchNtB5_6Common16satisfy_sequence
FNDA:0,_RINvMs4_NtNtNtNtCsfsPcvtvSBg5_13rag_toolchain6stores6traits40___mock_MockEmbeddingStore_EmbeddingStore13___store_batchNtB6_6Common5timespEBe_
FNDA:0,_RINvMs4_NtNtNtNtCsfsPcvtvSBg5_13rag_toolchain6stores6traits40___mock_MockEmbeddingStore_EmbeddingStore13___store_batchNtB6_6Common4withpEBe_
FNDA:0,_RINvMs4_NtNtNtNtCsfsPcvtvSBg5_13rag_toolchain6stores6traits40___mock_MockEmbeddingStore_EmbeddingStore13___store_batchNtB6_6Common5withfpEBe_
FNDA:0,_RINvMs4_NtNtNtNtCsfsPcvtvSBg5_13rag_toolchain6stores6traits40___mock_MockEmbeddingStore_EmbeddingStore13___store_batchNtB6_6Common8withf_stpEBe_
FNDA:0,_RNvMs4_NtNtNtNtCsfsPcvtvSBg5_13rag_toolchain6stores6traits40___mock_MockEmbeddingStore_EmbeddingStore13___store_batchNtB5_6Common15verify_sequence
FNDA:0,_RNvXs5_NtNtNtNtCsfsPcvtvSBg5_13rag_toolchain6stores6traits40___mock_MockEmbeddingStore_EmbeddingStore13___store_batchNtB5_6CommonNtNtNtCsaYZPK01V26L_4core3ops4drop4Drop4drop
FNDA:0,_RNvMs6_NtNtNtNtCsfsPcvtvSBg5_13rag_toolchain6stores6traits40___mock_MockEmbeddingStore_EmbeddingStore13___store_batchNtB5_11Expectation4call
FNDA:0,_RNCNvMs6_NtNtNtNtCsfsPcvtvSBg5_13rag_toolchain6stores6traits40___mock_MockEmbeddingStore_EmbeddingStore13___store_batchNtB7_11Expectation4call0Bf_
FNDA:0,_RINvMs6_NtNtNtNtCsfsPcvtvSBg5_13rag_toolchain6stores6traits40___mock_MockEmbeddingStore_EmbeddingStore13___store_batchNtB6_11Expectation12return_constpEBe_
FNDA:0,_RNCINvMs6_NtNtNtNtCsfsPcvtvSBg5_13rag_toolchain6stores6traits40___mock_MockEmbeddingStore_EmbeddingStore13___store_batchNtB8_11Expectation12return_constpE0Bg_
FNDA:0,_RINvMs6_NtNtNtNtCsfsPcvtvSBg5_13rag_toolchain6stores6traits40___mock_MockEmbeddingStore_EmbeddingStore13___store_batchNtB6_11Expectation15return_const_stpEBe_
FNDA:0,_RNCINvMs6_NtNtNtNtCsfsPcvtvSBg5_13rag_toolchain6stores6traits40___mock_MockEmbeddingStore_EmbeddingStore13___store_batchNtB8_11Expectation15return_const_stpE0Bg_
FNDA:0,_RINvMs6_NtNtNtNtCsfsPcvtvSBg5_13rag_toolchain6stores6traits40___mock_MockEmbeddingStore_EmbeddingStore13___store_batchNtB6_11Expectation11return_oncepEBe_
FNDA:0,_RINvMs6_NtNtNtNtCsfsPcvtvSBg5_13rag_toolchain6stores6traits40___mock_MockEmbeddingStore_EmbeddingStore13___store_batchNtB6_11Expectation14return_once_stpEBe_
FNDA:0,_RINvMs6_NtNtNtNtCsfsPcvtvSBg5_13rag_toolchain6stores6traits40___mock_MockEmbeddingStore_EmbeddingStore13___store_batchNtB6_11Expectation9returningpEBe_
FNDA:0,_RINvMs6_NtNtNtNtCsfsPcvtvSBg5_13rag_toolchain6stores6traits40___mock_MockEmbeddingStore_EmbeddingStore13___store_batchNtB6_11Expectation12returning_stpEBe_
FNDA:0,_RNvMs6_NtNtNtNtCsfsPcvtvSBg5_13rag_toolchain6stores6traits40___mock_MockEmbeddingStore_EmbeddingStore13___store_batchNtB5_11Expectation11in_sequence
FNDA:0,_RNvMs6_NtNtNtNtCsfsPcvtvSBg5_13rag_toolchain6stores6traits40___mock_MockEmbeddingStore_EmbeddingStore13___store_batchNtB5_11Expectation7is_done
FNDA:0,_RNvMs6_NtNtNtNtCsfsPcvtvSBg5_13rag_toolchain6stores6traits40___mock_MockEmbeddingStore_EmbeddingStore13___store_batchNtB5_11Expectation7matches
FNDA:0,_RNvMs6_NtNtNtNtCsfsPcvtvSBg5_13rag_toolchain6stores6traits40___mock_MockEmbeddingStore_EmbeddingStore13___store_batchNtB5_11Expectation5never
FNDA:0,_RNvMs6_NtNtNtNtCsfsPcvtvSBg5_13rag_toolchain6stores6traits40___mock_MockEmbeddingStore_EmbeddingStore13___store_batchNtB5_11Expectation3new
FNDA:0,_RNvMs6_NtNtNtNtCsfsPcvtvSBg5_13rag_toolchain6stores6traits40___mock_MockEmbeddingStore_EmbeddingStore13___store_batchNtB5_11Expectation4once
FNDA:0,_RINvMs6_NtNtNtNtCsfsPcvtvSBg5_13rag_toolchain6stores6traits40___mock_MockEmbeddingStore_EmbeddingStore13___store_batchNtB6_11Expectation5timespEBe_
FNDA:0,_RINvMs6_NtNtNtNtCsfsPcvtvSBg5_13rag_toolchain6stores6traits40___mock_MockEmbeddingStore_EmbeddingStore13___store_batchNtB6_11Expectation4withpEBe_
FNDA:0,_RINvMs6_NtNtNtNtCsfsPcvtvSBg5_13rag_toolchain6stores6traits40___mock_MockEmbeddingStore_EmbeddingStore13___store_batchNtB6_11Expectation5withfpEBe_
FNDA:0,_RINvMs6_NtNtNtNtCsfsPcvtvSBg5_13rag_toolchain6stores6traits40___mock_MockEmbeddingStore_EmbeddingStore13___store_batchNtB6_11Expectation8withf_stpEBe_
FNDA:0,_RNvXs7_NtNtNtNtCsfsPcvtvSBg5_13rag_toolchain6stores6traits40___mock_MockEmbeddingStore_EmbeddingStore13___store_batchNtB5_11ExpectationNtNtCsaYZPK01V26L_4core7default7Default7default
FNDA:0,_RNvMs8_NtNtNtNtCsfsPcvtvSBg5_13rag_toolchain6stores6traits40___mock_MockEmbeddingStore_EmbeddingStore13___store_batchNtB5_12Expectations10checkpoint
FNDA:0,_RNvMs8_NtNtNtNtCsfsPcvtvSBg5_13rag_toolchain6stores6traits40___mock_MockEmbeddingStore_EmbeddingStore13___store_batchNtB5_12Expectations6expect
FNDA:0,_RNvMs8_NtNtNtNtCsfsPcvtvSBg5_13rag_toolchain6stores6traits40___mock_MockEmbeddingStore_EmbeddingStore13___store_batchNtB5_12Expectations3new
FNDA:0,_RNvXs9_NtNtNtNtCsfsPcvtvSBg5_13rag_toolchain6stores6traits40___mock_MockEmbeddingStore_EmbeddingStore13___store_batchNtB5_12ExpectationsNtNtCsaYZPK01V26L_4core7default7Default7default
FNDA:0,_RNvMsa_NtNtNtNtCsfsPcvtvSBg5_13rag_toolchain6stores6traits40___mock_MockEmbeddingStore_EmbeddingStore13___store_batchNtB5_12Expectations4call
FNDA:0,_RNCNvMsa_NtNtNtNtCsfsPcvtvSBg5_13rag_toolchain6stores6traits40___mock_MockEmbeddingStore_EmbeddingStore13___store_batchNtB7_12Expectations4call0Bf_
FNDA:0,_RNCNvMsa_NtNtNtNtCsfsPcvtvSBg5_13rag_toolchain6stores6traits40___mock_MockEmbeddingStore_EmbeddingStore13___store_batchNtB7_12Expectations4calls_0Bf_
FNDA:0,_RNvXs_NtNtCsfsPcvtvSBg5_13rag_toolchain6stores6traitsNtB4_33MockEmbeddingStore_EmbeddingStoreNtNtCsaYZPK01V26L_4core7default7Default7default
FNDA:0,_RNvMs0_NtNtCsfsPcvtvSBg5_13rag_toolchain6stores6traitsNtB5_33MockEmbeddingStore_EmbeddingStore10checkpoint
FNDA:0,_RNvMs1_NtNtCsfsPcvtvSBg5_13rag_toolchain6stores6traitsNtB5_18MockEmbeddingStore10checkpoint
FNDA:0,_RNvMs1_NtNtCsfsPcvtvSBg5_13rag_toolchain6stores6traitsNtB5_18MockEmbeddingStore3new
FNDA:0,_RNvXs2_NtNtCsfsPcvtvSBg5_13rag_toolchain6stores6traitsNtB5_18MockEmbeddingStoreNtB5_14EmbeddingStore5store
FNDA:0,_RNCNvXs2_NtNtCsfsPcvtvSBg5_13rag_toolchain6stores6traitsNtB7_18MockEmbeddingStoreNtB7_14EmbeddingStore5store0Bb_
FNDA:0,_RNvXs2_NtNtCsfsPcvtvSBg5_13rag_toolchain6stores6traitsNtB5_18MockEmbeddingStoreNtB5_14EmbeddingStore11store_batch
FNDA:0,_RNCNvXs2_NtNtCsfsPcvtvSBg5_13rag_toolchain6stores6traitsNtB7_18MockEmbeddingStoreNtB7_14EmbeddingStore11store_batch0Bb_
FNDA:0,_RNvMs3_NtNtCsfsPcvtvSBg5_13rag_toolchain6stores6traitsNtB5_18MockEmbeddingStore12expect_store
FNDA:0,_RNvMs3_NtNtCsfsPcvtvSBg5_13rag_toolchain6stores6traitsNtB5_18MockEmbeddingStore18expect_store_batch
FNF:2
FNH:0
DA:35,0
DA:36,0
DA:37,0
DA:38,0
DA:39,0
DA:40,0
DA:41,0
DA:42,0
DA:43,0
BRF:0
BRH:0
LF:10
LH:0
end_of_record